Zilog eZ80 Macro Assembler Version 4.1 (10060805)01-Feb-11     15:32:44     page:   1


PC     Object              I  Line    Source 
                           A     1    ;----------------------------------------------
                           A     2    ; Convert Amiga hardware values from Z80 Protra
                           A     3    ; and writes to hardware registers
                           A     4    ;----------------------------------------------
                           A     5    ;
                           A     6    ; V1.01 - Z80 mode (non-ADL code) for HW v0036
                           A     7    ; Writes 4 channels to left and right stereo (n
                           A     8    ;----------------------------------------------
                           A     9    
                           A    10    .assume ADL = 0
                           A    11    
       00000000            A    12    firstchan_period	equ channel_data+period_lo
-----ERROR (405) Label "channel_data" not defined
-----ERROR (405) Label "period_lo" not defined
       00000000            A    13    firstchan_volume	equ channel_data+volume
-----ERROR (405) Label "volume" not defined
       00000000            A    14    firstchan_location	equ channel_data+samp_loc_l
-----ERROR (405) Label "samp_loc_lo" not defined
       00000000            A    15    firstchan_length	equ channel_data+samp_len_l
-----ERROR (405) Label "samp_len_lo" not defined
       00000000            A    16    firstchan_control	equ channel_data+control_bi
-----ERROR (405) Label "control_bits" not defined
       00000000            A    17    firstchan_loop_loc	equ channel_data+samp_loop_
-----ERROR (405) Label "samp_loop_loc_lo" not defined
       00000000            A    18    firstchan_loop_len	equ channel_data+samp_loop_
-----ERROR (405) Label "samp_loop_len_lo" not defined
                           A    19    
       00000000            A    20    secondchan_period	equ channel_data+vars_per_c
-----ERROR (405) Label "vars_per_channel" not defined
       00000000            A    21    secondchan_volume	equ channel_data+vars_per_c
       00000000            A    22    secondchan_location	equ channel_data+vars_per_c
       00000000            A    23    secondchan_length	equ channel_data+vars_per_c
       00000000            A    24    secondchan_control	equ channel_data+vars_per_c
       00000000            A    25    secondchan_loop_loc	equ channel_data+vars_per_c
       00000000            A    26    secondchan_loop_len	equ channel_data+vars_per_c
                           A    27    
       00000000            A    28    thirdchan_period	equ channel_data+(vars_per_
       00000000            A    29    thirdchan_volume	equ channel_data+(vars_per_
       00000000            A    30    thirdchan_location	equ channel_data+(vars_per_
       00000000            A    31    thirdchan_length	equ channel_data+(vars_per_
       00000000            A    32    thirdchan_control	equ channel_data+(vars_per_
       00000000            A    33    thirdchan_loop_loc	equ channel_data+(vars_per_
       00000000            A    34    thirdchan_loop_len	equ channel_data+(vars_per_
                           A    35    
       00000000            A    36    fourthchan_period	equ channel_data+(vars_per_
       00000000            A    37    fourthchan_volume	equ channel_data+(vars_per_
       00000000            A    38    fourthchan_location	equ channel_data+(vars_per_
       00000000            A    39    fourthchan_length	equ channel_data+(vars_per_
       00000000            A    40    fourthchan_control	equ channel_data+(vars_per_
       00000000            A    41    fourthchan_loop_loc	equ channel_data+(vars_per_
       00000000            A    42    fourthchan_loop_len	equ channel_data+(vars_per_
                           A    43    
Zilog eZ80 Macro Assembler Version 4.1 (10060805)01-Feb-11     15:32:44     page:   2


PC     Object              I  Line    Source E:\MY_OWN~1\Coding\EZ80PR~1\Code\PROSEA~1\PROTRA~2\src\Amiga_to_ez80p_audio.asm
                           A    44    ;----------------------------------------------
                           A    45    ; EZ80P specific code starts
                           A    46    ;----------------------------------------------
                           A    47    
       00F80000            A    48    sound_registers		equ 0f80000h
                           A    49    
       00F80000            A    50    hw_ch0_loc 			equ sound_registers+00h
       00F80020            A    51    hw_ch0_loop_loc 	equ sound_registers+20h
       00F80040            A    52    hw_ch0_len			equ sound_registers+40h 
       00F80060            A    53    hw_ch0_loop_len		equ sound_registers+60h
       00F80080            A    54    hw_ch0_per			equ sound_registers+80h
       00F800C0            A    55    hw_ch0_vol			equ sound_registers+c0h
                           A    56    
       00F80004            A    57    hw_ch1_loc 			equ sound_registers+04h
       00F80024            A    58    hw_ch1_loop_loc 	equ sound_registers+24h
       00F80044            A    59    hw_ch1_len			equ sound_registers+44h 
       00F80064            A    60    hw_ch1_loop_len		equ sound_registers+64h
       00F80084            A    61    hw_ch1_per			equ sound_registers+84h
       00F800C4            A    62    hw_ch1_vol			equ sound_registers+c4h
                           A    63    
       00F80008            A    64    hw_ch2_loc 			equ sound_registers+08h
       00F80028            A    65    hw_ch2_loop_loc 	equ sound_registers+28h
       00F80048            A    66    hw_ch2_len			equ sound_registers+48h 
       00F80068            A    67    hw_ch2_loop_len		equ sound_registers+68h
       00F80088            A    68    hw_ch2_per			equ sound_registers+88h
       00F800C8            A    69    hw_ch2_vol			equ sound_registers+c8h
                           A    70    
       00F8000C            A    71    hw_ch3_loc 			equ sound_registers+0ch
       00F8002C            A    72    hw_ch3_loop_loc 	equ sound_registers+2ch
       00F8004C            A    73    hw_ch3_len			equ sound_registers+4ch 
       00F8006C            A    74    hw_ch3_loop_len		equ sound_registers+6ch
       00F8008C            A    75    hw_ch3_per			equ sound_registers+8ch
       00F800CC            A    76    hw_ch3_vol			equ sound_registers+cch
                           A    77    
       00F80010            A    78    hw_ch4_loc 			equ sound_registers+10h
       00F80030            A    79    hw_ch4_loop_loc 	equ sound_registers+30h
       00F80050            A    80    hw_ch4_len			equ sound_registers+50h 
       00F80070            A    81    hw_ch4_loop_len		equ sound_registers+70h
       00F80090            A    82    hw_ch4_per			equ sound_registers+90h
       00F800D0            A    83    hw_ch4_vol			equ sound_registers+d0h
                           A    84    
       00F80014            A    85    hw_ch5_loc 			equ sound_registers+14h
       00F80034            A    86    hw_ch5_loop_loc 	equ sound_registers+34h
       00F80054            A    87    hw_ch5_len			equ sound_registers+54h 
       00F80074            A    88    hw_ch5_loop_len		equ sound_registers+74h
       00F80094            A    89    hw_ch5_per			equ sound_registers+94h
       00F800D4            A    90    hw_ch5_vol			equ sound_registers+d4h
                           A    91    
       00F80018            A    92    hw_ch6_loc 			equ sound_registers+18h
       00F80038            A    93    hw_ch6_loop_loc 	equ sound_registers+38h
       00F80058            A    94    hw_ch6_len			equ sound_registers+58h 
       00F80078            A    95    hw_ch6_loop_len		equ sound_registers+78h
Zilog eZ80 Macro Assembler Version 4.1 (10060805)01-Feb-11     15:32:44     page:   3


PC     Object              I  Line    Source E:\MY_OWN~1\Coding\EZ80PR~1\Code\PROSEA~1\PROTRA~2\src\Amiga_to_ez80p_audio.asm
       00F80098            A    96    hw_ch6_per			equ sound_registers+98h
       00F800D8            A    97    hw_ch6_vol			equ sound_registers+d8h
                           A    98    
       00F8001C            A    99    hw_ch7_loc 			equ sound_registers+1ch
       00F8003C            A   100    hw_ch7_loop_loc 	equ sound_registers+3ch
       00F8005C            A   101    hw_ch7_len			equ sound_registers+5ch 
       00F8007C            A   102    hw_ch7_loop_len		equ sound_registers+7ch
       00F8009C            A   103    hw_ch7_per			equ sound_registers+9ch
       00F800DC            A   104    hw_ch7_vol			equ sound_registers+dch
                           A   105    
                           A   106    ;----------------------------------------------
                           A   107    ; Wait for good time to update audio hardware r
                           A   108    ;----------------------------------------------
                           A   109    
000000                     A   110    update_audio_hardware
                           A   111    
000000 ED38 00             A   112    				in0 a,(port_hw_flags)			-----ERROR (405) Label "port_hw_flags" not defined
000003 E640                A   113    				and 040h
000005 EE40                A   114    				xor 040h
000007 47                  A   115    				ld b,a
000008 ED38 00             A   116    wait_aud_upd	in0 a,(port_hw_flags)
00000B E640                A   117    				and 040h
00000D B8                  A   118    				cp b
00000E 20 F8               A   119    				jr nz,wait_aud_upd
000010 0610                A   120    				ld b,16
000012 10 FE               A   121    aud_reg_wait	djnz aud_reg_wait				                           A   122    
000014 3E08                A   123    				ld a,08h						000016 5B32 00 00 00       A   124    				ld.lil (hw_palette),a			-----ERROR (405) Label "hw_palette" not defined
                           A   125    				
                           A   126    ;----------------------------------------------
                           A   127    ; Write Period Constants - must be done in max 
                           A   128    ;----------------------------------------------
                           A   129    								
00001B 11 40 01            A   130    				ld de,period_conv_table-200		00001E 2A 00 00            A   131    				ld hl,(firstchan_period)	  	000021 29                  A   132    				add hl,hl
000022 19                  A   133    				add hl,de
000023 5E                  A   134    				ld e,(hl)
000024 23                  A   135    				inc hl
000025 56                  A   136    				ld d,(hl)
000026 5BED5380 00F8       A   137    				ld.lil (hw_ch0_per),de			00002C 5BED5390 00F8       A   138    				ld.lil (hw_ch4_per),de
                           A   139    				
000032 11 40 01            A   140    				ld de,period_conv_table-200		000035 2A 00 00            A   141    				ld hl,(secondchan_period)	  	000038 29                  A   142    				add hl,hl
000039 19                  A   143    				add hl,de
00003A 5E                  A   144    				ld e,(hl)
00003B 23                  A   145    				inc hl
Zilog eZ80 Macro Assembler Version 4.1 (10060805)01-Feb-11     15:32:44     page:   4


PC     Object              I  Line    Source E:\MY_OWN~1\Coding\EZ80PR~1\Code\PROSEA~1\PROTRA~2\src\Amiga_to_ez80p_audio.asm
00003C 56                  A   146    				ld d,(hl)
00003D 5BED5384 00F8       A   147    				ld.lil (hw_ch1_per),de			000043 5BED5394 00F8       A   148    				ld.lil (hw_ch5_per),de
                           A   149    		
000049 11 40 01            A   150    				ld de,period_conv_table-200		00004C 2A 00 00            A   151    				ld hl,(thirdchan_period)	  	00004F 29                  A   152    				add hl,hl
000050 19                  A   153    				add hl,de
000051 5E                  A   154    				ld e,(hl)
000052 23                  A   155    				inc hl
000053 56                  A   156    				ld d,(hl)
000054 5BED5388 00F8       A   157    				ld.lil (hw_ch2_per),de			00005A 5BED5398 00F8       A   158    				ld.lil (hw_ch6_per),de
                           A   159    
000060 11 40 01            A   160    				ld de,period_conv_table-200		000063 2A 00 00            A   161    				ld hl,(fourthchan_period)	  	000066 29                  A   162    				add hl,hl
000067 19                  A   163    				add hl,de
000068 5E                  A   164    				ld e,(hl)
000069 23                  A   165    				inc hl
00006A 56                  A   166    				ld d,(hl)
00006B 5BED538C 00F8       A   167    				ld.lil (hw_ch3_per),de			000071 5BED539C 00F8       A   168    				ld.lil (hw_ch7_per),de
                           A   169    
                           A   170    ;----------------------------------------------
                           A   171    ; Write Volume
                           A   172    ;----------------------------------------------
                           A   173    
                           A   174    
000077 3A 00 00            A   175    				ld a,(firstchan_volume)			00007A 5F                  A   176    				ld e,a
00007B 5BED53C0 00F8       A   177    				ld.lil (hw_ch0_vol),de			000081 5BED53D0 00F8       A   178    				ld.lil (hw_ch4_vol),de
                           A   179    				
000087 3A 00 00            A   180    				ld a,(secondchan_volume)
00008A 5F                  A   181    				ld e,a
00008B 5BED53C4 00F8       A   182    				ld.lil (hw_ch1_vol),de			000091 5BED53D4 00F8       A   183    				ld.lil (hw_ch5_vol),de
                           A   184    				
000097 3A 00 00            A   185    				ld a,(thirdchan_volume)
00009A 5F                  A   186    				ld e,a
00009B 5BED53C8 00F8       A   187    				ld.lil (hw_ch2_vol),de			0000A1 5BED53D8 00F8       A   188    				ld.lil (hw_ch6_vol),de
                           A   189    				
0000A7 3A 00 00            A   190    				ld a,(fourthchan_volume)
0000AA 5F                  A   191    				ld e,a
0000AB 5BED53CC 00F8       A   192    				ld.lil (hw_ch3_vol),de			0000B1 5BED53DC 00F8       A   193    				ld.lil (hw_ch7_vol),de
                           A   194    
                           A   195    ;----------------------------------------------
                           A   196    ; Write Loc and Len of triggered channels
                           A   197    ;----------------------------------------------
Zilog eZ80 Macro Assembler Version 4.1 (10060805)01-Feb-11     15:32:44     page:   5


PC     Object              I  Line    Source E:\MY_OWN~1\Coding\EZ80PR~1\Code\PROSEA~1\PROTRA~2\src\Amiga_to_ez80p_audio.asm
                           A   198    
0000B7 5B110000 00         A   199    				ld.lil de,0
                           A   200    
0000BC 21 00 00            A   201    				ld hl,firstchan_control
0000BF CB46                A   202    				bit 0,(hl)
0000C1 28 4A               A   203    				jr z,no_rt_ch0
0000C3 CB86                A   204    				res 0,(hl)
0000C5 2A 00 00            A   205    				ld hl,(firstchan_location)
0000C8 29                  A   206    				add hl,hl
0000C9 5D                  A   207    				ld e,l
0000CA 54                  A   208    				ld d,h
0000CB 5BED5300 00F8       A   209    				ld.lil (hw_ch0_loc),de			0000D1 5BED5310 00F8       A   210    				ld.lil (hw_ch4_loc),de	
0000D7 2A 00 00            A   211    				ld hl,(firstchan_loop_loc)
0000DA 29                  A   212    				add hl,hl
0000DB 5D                  A   213    				ld e,l
0000DC 54                  A   214    				ld d,h
0000DD 5BED5320 00F8       A   215    				ld.lil (hw_ch0_loop_loc),de		0000E3 5BED5330 00F8       A   216    				ld.lil (hw_ch4_loop_loc),de	
0000E9 2A 00 00            A   217    				ld hl,(firstchan_length)
0000EC 29                  A   218    				add hl,hl
0000ED 5D                  A   219    				ld e,l
0000EE 54                  A   220    				ld d,h
0000EF 5BED5340 00F8       A   221    				ld.lil (hw_ch0_len),de			0000F5 5BED5350 00F8       A   222    				ld.lil (hw_ch4_len),de
0000FB 2A 00 00            A   223    				ld hl,(firstchan_loop_len)
0000FE 29                  A   224    				add hl,hl
0000FF 5D                  A   225    				ld e,l
000100 54                  A   226    				ld d,h
000101 5BED5360 00F8       A   227    				ld.lil (hw_ch0_loop_len),de		000107 5BED5370 00F8       A   228    				ld.lil (hw_ch4_loop_len),de
00010D                     A   229    no_rt_ch0
00010D 21 00 00            A   230    				ld hl,secondchan_control
000110 CB46                A   231    				bit 0,(hl)
000112 28 4A               A   232    				jr z,no_rt_ch1
000114 CB86                A   233    				res 0,(hl)
000116 2A 00 00            A   234    				ld hl,(secondchan_location)
000119 29                  A   235    				add hl,hl
00011A 5D                  A   236    				ld e,l
00011B 54                  A   237    				ld d,h
00011C 5BED5304 00F8       A   238    				ld.lil (hw_ch1_loc),de			000122 5BED5314 00F8       A   239    				ld.lil (hw_ch5_loc),de
000128 2A 00 00            A   240    				ld hl,(secondchan_loop_loc)
00012B 29                  A   241    				add hl,hl
00012C 5D                  A   242    				ld e,l
00012D 54                  A   243    				ld d,h
00012E 5BED5324 00F8       A   244    				ld.lil (hw_ch1_loop_loc),de		000134 5BED5334 00F8       A   245    				ld.lil (hw_ch5_loop_loc),de	
00013A 2A 00 00            A   246    				ld hl,(secondchan_length)
00013D 29                  A   247    				add hl,hl
00013E 5D                  A   248    				ld e,l
00013F 54                  A   249    				ld d,h
Zilog eZ80 Macro Assembler Version 4.1 (10060805)01-Feb-11     15:32:44     page:   6


PC     Object              I  Line    Source E:\MY_OWN~1\Coding\EZ80PR~1\Code\PROSEA~1\PROTRA~2\src\Amiga_to_ez80p_audio.asm
000140 5BED5344 00F8       A   250    				ld.lil (hw_ch1_len),de			000146 5BED5354 00F8       A   251    				ld.lil (hw_ch5_len),de
00014C 2A 00 00            A   252    				ld hl,(secondchan_loop_len)		00014F 29                  A   253    				add hl,hl
000150 5D                  A   254    				ld e,l
000151 54                  A   255    				ld d,h
000152 5BED5364 00F8       A   256    				ld.lil (hw_ch1_loop_len),de		000158 5BED5374 00F8       A   257    				ld.lil (hw_ch5_loop_len),de	
00015E                     A   258    no_rt_ch1
00015E 21 00 00            A   259    				ld hl,thirdchan_control
000161 CB46                A   260    				bit 0,(hl)
000163 28 4A               A   261    				jr z,no_rt_ch2
000165 CB86                A   262    				res 0,(hl)
000167 2A 00 00            A   263    				ld hl,(thirdchan_location)
00016A 29                  A   264    				add hl,hl
00016B 5D                  A   265    				ld e,l
00016C 54                  A   266    				ld d,h
00016D 5BED5308 00F8       A   267    				ld.lil (hw_ch2_loc),de			000173 5BED5318 00F8       A   268    				ld.lil (hw_ch6_loc),de
000179 2A 00 00            A   269    				ld hl,(thirdchan_loop_loc)
00017C 29                  A   270    				add hl,hl
00017D 5D                  A   271    				ld e,l
00017E 54                  A   272    				ld d,h
00017F 5BED5328 00F8       A   273    				ld.lil (hw_ch2_loop_loc),de		000185 5BED5338 00F8       A   274    				ld.lil (hw_ch6_loop_loc),de	
00018B 2A 00 00            A   275    				ld hl,(thirdchan_length)
00018E 29                  A   276    				add hl,hl
00018F 5D                  A   277    				ld e,l
000190 54                  A   278    				ld d,h
000191 5BED5348 00F8       A   279    				ld.lil (hw_ch2_len),de			000197 5BED5358 00F8       A   280    				ld.lil (hw_ch6_len),de	
00019D 2A 00 00            A   281    				ld hl,(thirdchan_loop_len)
0001A0 29                  A   282    				add hl,hl
0001A1 5D                  A   283    				ld e,l
0001A2 54                  A   284    				ld d,h
0001A3 5BED5368 00F8       A   285    				ld.lil (hw_ch2_loop_len),de		0001A9 5BED5378 00F8       A   286    				ld.lil (hw_ch6_loop_len),de	
0001AF                     A   287    no_rt_ch2
0001AF 21 00 00            A   288    				ld hl,fourthchan_control
0001B2 CB46                A   289    				bit 0,(hl)
0001B4 28 4A               A   290    				jr z,no_rt_ch3
0001B6 CB86                A   291    				res 0,(hl)
0001B8 2A 00 00            A   292    				ld hl,(fourthchan_location)
0001BB 29                  A   293    				add hl,hl
0001BC 5D                  A   294    				ld e,l
0001BD 54                  A   295    				ld d,h
0001BE 5BED530C 00F8       A   296    				ld.lil (hw_ch3_loc),de			0001C4 5BED531C 00F8       A   297    				ld.lil (hw_ch7_loc),de	
0001CA 2A 00 00            A   298    				ld hl,(fourthchan_loop_loc)
0001CD 29                  A   299    				add hl,hl
0001CE 5D                  A   300    				ld e,l
0001CF 54                  A   301    				ld d,h
Zilog eZ80 Macro Assembler Version 4.1 (10060805)01-Feb-11     15:32:44     page:   7


PC     Object              I  Line    Source E:\MY_OWN~1\Coding\EZ80PR~1\Code\PROSEA~1\PROTRA~2\src\Amiga_to_ez80p_audio.asm
0001D0 5BED532C 00F8       A   302    				ld.lil (hw_ch3_loop_loc),de		0001D6 5BED533C 00F8       A   303    				ld.lil (hw_ch7_loop_loc),de	
0001DC 2A 00 00            A   304    				ld hl,(fourthchan_length)
0001DF 29                  A   305    				add hl,hl
0001E0 5D                  A   306    				ld e,l
0001E1 54                  A   307    				ld d,h
0001E2 5BED534C 00F8       A   308    				ld.lil (hw_ch3_len),de			0001E8 5BED535C 00F8       A   309    				ld.lil (hw_ch7_len),de
0001EE 2A 00 00            A   310    				ld hl,(fourthchan_loop_len)
0001F1 29                  A   311    				add hl,hl
0001F2 5D                  A   312    				ld e,l
0001F3 54                  A   313    				ld d,h
0001F4 5BED536C 00F8       A   314    				ld.lil (hw_ch3_loop_len),de		0001FA 5BED537C 00F8       A   315    				ld.lil (hw_ch7_loop_len),de
000200                     A   316    no_rt_ch3
                           A   317    
000200 3E00                A   318    				ld a,0h							000202 5B32 00 00 00       A   319    				ld.lil (hw_palette),a			                           A   320    
000207 C9                  A   321    				ret
                           A   322    	
                           A   323    ;----------------------------------------------
                           A   324    ; Table for equivalent EZ80P constants to Amiga
                           A   325    ;----------------------------------------------
                           A   326    ;
                           A   327    ; Formula: (1/48828) / ((1/3579545) * period) *
                           A   328    ;
                           A   329    ; Starts at Amiga period 100, one 16-bit consta
                           A   330    
000208                     A   331    period_conv_table:
                           A   332    
000208 ABBBD0B9 FDB734B6   A   333                    db 0ABh,0BBh,0D0h,0B9h,0FDh,0B7
000210 74B4BCB2 0CB164AF 
000218 C5AD2DAC 9CAA12A9   A   334                    db 0C5h,0ADh,02Dh,0ACh,09Ch,0AA
000220 90A714A6 9FA431A3 
000228 C9A167A0 0B9FB59D   A   335                    db 0C9h,0A1h,067h,0A0h,00Bh,09F
000230 649C199B D4999498 
000238 59972396 F294C593   A   336                    db 059h,097h,023h,096h,0F2h,094
000240 9E927B91 5C90428F 
000248 2C8E1B8D 0D8C048B   A   337                    db 02Ch,08Eh,01Bh,08Dh,00Dh,08C
000250 FE89FC88 FE870487 
000258 0D861985 29843D83   A   338                    db 00Dh,086h,019h,085h,029h,084
000260 53826D81 8A80AA7F 
000268 CE7EF47D 1D7D497C   A   339                    db 0CEh,07Eh,0F4h,07Dh,01Dh,07D
000270 777BA97A DD791479 
000278 4D788977 C7760876   A   340                    db 04Dh,078h,089h,077h,0C7h,076
000280 4B759074 D8732273 
000288 6F72BD71 0E716070   A   341                    db 06Fh,072h,0BDh,071h,00Eh,071
000290 B56F0C6F 656EBF6D 
000298 1C6D7B6C DB6B3D6B   A   342                    db 01Ch,06Dh,07Bh,06Ch,0DBh,06B
0002A0 A16A076A 6E69D868 
0002A8 4368AF67 1D678D66   A   343                    db 043h,068h,0AFh,067h,01Dh,067
Zilog eZ80 Macro Assembler Version 4.1 (10060805)01-Feb-11     15:32:44     page:   8


PC     Object              I  Line    Source E:\MY_OWN~1\Coding\EZ80PR~1\Code\PROSEA~1\PROTRA~2\src\Amiga_to_ez80p_audio.asm
0002B0 FE657165 E6645B64 
0002B8 D3634C63 C6624162   A   344                    db 0D3h,063h,04Ch,063h,0C6h,062
0002C0 BE613D61 BC603D60 
0002C8 C05F435F C85E4E5E   A   345                    db 0C0h,05Fh,043h,05Fh,0C8h,05E
0002D0 D55D5E5D E85C725C 
0002D8 FE5B8C5B 1A5BA95A   A   346                    db 0FEh,05Bh,08Ch,05Bh,01Ah,05B
0002E0 3A5ACB59 5E59F158 
0002E8 86581B58 B2574A57   A   347                    db 086h,058h,01Bh,058h,0B2h,057
0002F0 E2567C56 1656B155 
0002F8 4E55EB54 89542854   A   348                    db 04Eh,055h,0EBh,054h,089h,054
000300 C8536853 0A53AC52 
000308 4F52F351 98513E51   A   349                    db 04Fh,052h,0F3h,051h,098h,051
000310 E4508B50 3350DC4F 
000318 854F2F4F DA4E864E   A   350                    db 085h,04Fh,02Fh,04Fh,0DAh,04E
000320 324EDF4D 8C4D3B4D 
000328 EA4C994C 4A4CFA4B   A   351                    db 0EAh,04Ch,099h,04Ch,04Ah,04C
000330 AC4B5E4B 114BC54A 
000338 794A2D4A E2499849   A   352                    db 079h,04Ah,02Dh,04Ah,0E2h,049
000340 4F490649 BD487548 
000348 2E48E747 A1475B47   A   353                    db 02Eh,048h,0E7h,047h,0A1h,047
000350 1647D146 8D464946 
000358 0646C445 82454045   A   354                    db 006h,046h,0C4h,045h,082h,045
000360 FF44BE44 7E443E44 
000368 FF43C043 82434443   A   355                    db 0FFh,043h,0C0h,043h,082h,043
000370 0643C942 8C425042 
000378 1442D941 9E416441   A   356                    db 014h,042h,0D9h,041h,09Eh,041
000380 2941F040 B6407D40 
000388 45400D40 D53F9E3F   A   357                    db 045h,040h,00Dh,040h,0D5h,03F
000390 673F303F FA3EC43E 
000398 8E3E593E 243EF03D   A   358                    db 08Eh,03Eh,059h,03Eh,024h,03E
0003A0 BB3D883D 543D213D 
0003A8 EE3CBC3C 8A3C583C   A   359                    db 0EEh,03Ch,0BCh,03Ch,08Ah,03C
0003B0 263CF53B C43B943B 
0003B8 633B333B 043BD43A   A   360                    db 063h,03Bh,033h,03Bh,004h,03B
0003C0 A53A763A 483A1A3A 
0003C8 EC39BE39 91396439   A   361                    db 0ECh,039h,0BEh,039h,091h,039
0003D0 37390B39 DE38B238 
0003D8 87385B38 30380538   A   362                    db 087h,038h,05Bh,038h,030h,038
0003E0 DA37B037 86375C37 
0003E8 32370937 DF36B636   A   363                    db 032h,037h,009h,037h,0DFh,036
0003F0 8E366536 3D361536 
0003F8 ED35C635 9E357735   A   364                    db 0EDh,035h,0C6h,035h,09Eh,035
000400 50352A35 0335DD34 
000408 B7349134 6C344634   A   365                    db 0B7h,034h,091h,034h,06Ch,034
000410 2134FC33 D733B333 
000418 8E336A33 46332233   A   366                    db 08Eh,033h,06Ah,033h,046h,033
000420 FF32DC32 B8329532 
000428 73325032 2D320B32   A   367                    db 073h,032h,050h,032h,02Dh,032
000430 E931C731 A6318431 
000438 63314131 20310031   A   368                    db 063h,031h,041h,031h,020h,031
000440 DF30BE30 9E307E30 
000448 5E303E30 1E30FF2F   A   369                    db 05Eh,030h,03Eh,030h,01Eh,030
Zilog eZ80 Macro Assembler Version 4.1 (10060805)01-Feb-11     15:32:44     page:   9


PC     Object              I  Line    Source E:\MY_OWN~1\Coding\EZ80PR~1\Code\PROSEA~1\PROTRA~2\src\Amiga_to_ez80p_audio.asm
000450 E02FC02F A12F832F 
000458 642F452F 272F092F   A   370                    db 064h,02Fh,045h,02Fh,027h,02F
000460 EA2ECD2E AF2E912E 
000468 742E562E 392E1C2E   A   371                    db 074h,02Eh,056h,02Eh,039h,02E
000470 FF2DE22D C62DA92D 
000478 8D2D702D 542D382D   A   372                    db 08Dh,02Dh,070h,02Dh,054h,02D
000480 1D2D012D E52CCA2C 
000488 AF2C932C 782C5D2C   A   373                    db 0AFh,02Ch,093h,02Ch,078h,02C
000490 432C282C 0D2CF32B 
000498 D92BBF2B A52B8B2B   A   374                    db 0D9h,02Bh,0BFh,02Bh,0A5h,02B
0004A0 712B572B 3E2B242B 
0004A8 0B2BF22A D82ABF2A   A   375                    db 00Bh,02Bh,0F2h,02Ah,0D8h,02A
0004B0 A72A8E2A 752A5D2A 
0004B8 442A2C2A 142AFC29   A   376                    db 044h,02Ah,02Ch,02Ah,014h,02A
0004C0 E429CC29 B4299C29 
0004C8 85296D29 56293F29   A   377                    db 085h,029h,06Dh,029h,056h,029
0004D0 27291029 F928E328 
0004D8 CC28B528 9F288828   A   378                    db 0CCh,028h,0B5h,028h,09Fh,028
0004E0 72285C28 45282F28 
0004E8 19280328 EE27D827   A   379                    db 019h,028h,003h,028h,0EEh,027
0004F0 C227AD27 97278227 
0004F8 6D275827 43272E27   A   380                    db 06Dh,027h,058h,027h,043h,027
000500 19270427 EF26DA26 
000508 C626B126 9D268926   A   381                    db 0C6h,026h,0B1h,026h,09Dh,026
000510 75266026 4C263826 
000518 25261126 FD25E925   A   382                    db 025h,026h,011h,026h,0FDh,025
000520 D625C225 AF259C25 
000528 88257525 62254F25   A   383                    db 088h,025h,075h,025h,062h,025
000530 3C252925 16250425 
000538 F124DE24 CC24B924   A   384                    db 0F1h,024h,0DEh,024h,0CCh,024
000540 A7249524 83247024 
000548 5E244C24 3A242924   A   385                    db 05Eh,024h,04Ch,024h,03Ah,024
000550 17240524 F323E223 
000558 D023BF23 AD239C23   A   386                    db 0D0h,023h,0BFh,023h,0ADh,023
000560 8B237A23 68235723 
000568 46233523 24231423   A   387                    db 046h,023h,035h,023h,024h,023
000570 0323F222 E222D122 
000578 C122B022 A0228F22   A   388                    db 0C1h,022h,0B0h,022h,0A0h,022
000580 7F226F22 5F224F22 
000588 3F222F22 1F220F22   A   389                    db 03Fh,022h,02Fh,022h,01Fh,022
000590 FF21EF21 E021D021 
000598 C121B121 A2219221   A   390                    db 0C1h,021h,0B1h,021h,0A2h,021
0005A0 83217321 64215521 
0005A8 46213721 28211921   A   391                    db 046h,021h,037h,021h,028h,021
0005B0 0A21FB20 EC20DE20 
0005B8 CF20C020 B220A320   A   392                    db 0CFh,020h,0C0h,020h,0B2h,020
0005C0 94208620 78206920 
0005C8 5B204D20 3E203020   A   393                    db 05Bh,020h,04Dh,020h,03Eh,020
0005D0 22201420 0620F81F 
0005D8 EA1FDC1F CF1FC11F   A   394                    db 0EAh,01Fh,0DCh,01Fh,0CFh,01F
0005E0 B31FA51F 981F8A1F 
0005E8 7D1F6F1F 621F541F   A   395                    db 07Dh,01Fh,06Fh,01Fh,062h,01F
Zilog eZ80 Macro Assembler Version 4.1 (10060805)01-Feb-11     15:32:44     page:  10


PC     Object              I  Line    Source E:\MY_OWN~1\Coding\EZ80PR~1\Code\PROSEA~1\PROTRA~2\src\Amiga_to_ez80p_audio.asm
0005F0 471F3A1F 2C1F1F1F 
0005F8 121F051F F81EEA1E   A   396                    db 012h,01Fh,005h,01Fh,0F8h,01E
000600 DD1ED01E C41EB71E 
000608 AA1E9D1E 901E841E   A   397                    db 0AAh,01Eh,09Dh,01Eh,090h,01E
000610 771E6A1E 5E1E511E 
000618 451E381E 2C1E1F1E   A   398                    db 045h,01Eh,038h,01Eh,02Ch,01E
000620 131E071E FA1DEE1D 
000628 E21DD61D CA1DBD1D   A   399                    db 0E2h,01Dh,0D6h,01Dh,0CAh,01D
000630 B11DA51D 991D8D1D 
000638 821D761D 6A1D5E1D   A   400                    db 082h,01Dh,076h,01Dh,06Ah,01D
000640 521D471D 3B1D2F1D 
000648 241D181D 0D1D011D   A   401                    db 024h,01Dh,018h,01Dh,00Dh,01D
000650 F61CEA1C DF1CD41C 
000658 C81CBD1C B21CA61C   A   402                    db 0C8h,01Ch,0BDh,01Ch,0B2h,01C
000660 9B1C901C 851C7A1C 
000668 6F1C641C 591C4E1C   A   403                    db 06Fh,01Ch,064h,01Ch,059h,01C
000670 431C381C 2D1C221C 
000678 181C0D1C 021CF81B   A   404                    db 018h,01Ch,00Dh,01Ch,002h,01C
000680 ED1BE21B D81BCD1B 
000688 C31BB81B AE1BA31B   A   405                    db 0C3h,01Bh,0B8h,01Bh,0AEh,01B
000690 991B8E1B 841B7A1B 
000698 6F1B651B 5B1B511B   A   406                    db 06Fh,01Bh,065h,01Bh,05Bh,01B
0006A0 471B3C1B 321B281B 
0006A8 1E1B141B 0A1B001B   A   407                    db 01Eh,01Bh,014h,01Bh,00Ah,01B
0006B0 F61AEC1A E31AD91A 
0006B8 CF1AC51A BB1AB21A   A   408                    db 0CFh,01Ah,0C5h,01Ah,0BBh,01A
0006C0 A81A9E1A 951A8B1A 
0006C8 811A781A 6E1A651A   A   409                    db 081h,01Ah,078h,01Ah,06Eh,01A
0006D0 5B1A521A 481A3F1A 
0006D8 361A2C1A 231A1A1A   A   410                    db 036h,01Ah,02Ch,01Ah,023h,01A
0006E0 101A071A FE19F519 
0006E8 EB19E219 D919D019   A   411                    db 0EBh,019h,0E2h,019h,0D9h,019
0006F0 C719BE19 B519AC19 
0006F8 A3199A19 91198819   A   412                    db 0A3h,019h,09Ah,019h,091h,019
000700 7F197619 6E196519 
000708 5C195319 4A194219   A   413                    db 05Ch,019h,053h,019h,04Ah,019
000710 39193019 28191F19 
000718 16190E19 0519FD18   A   414                    db 016h,019h,00Eh,019h,005h,019
000720 F418EC18 E318DB18 
000728 D318CA18 C218B918   A   415                    db 0D3h,018h,0CAh,018h,0C2h,018
000730 B118A918 A0189818 
000738 90188818 80187718   A   416                    db 090h,018h,088h,018h,080h,018
000740 6F186718 5F185718 
000748 4F184718 3F183718   A   417                    db 04Fh,018h,047h,018h,03Fh,018
000750 2F182718 1F181718 
000758 0F180718 FF17F717   A   418                    db 00Fh,018h,007h,018h,0FFh,017
000760 F017E817 E017D817 
000768 D017C917 C117B917   A   419                    db 0D0h,017h,0C9h,017h,0C1h,017
000770 B217AA17 A2179B17 
000778 93178C17 84177D17   A   420                    db 093h,017h,08Ch,017h,084h,017
000780 75176D17 66175F17 
000788 57175017 48174117   A   421                    db 057h,017h,050h,017h,048h,017
Zilog eZ80 Macro Assembler Version 4.1 (10060805)01-Feb-11     15:32:44     page:  11


PC     Object              I  Line    Source E:\MY_OWN~1\Coding\EZ80PR~1\Code\PROSEA~1\PROTRA~2\src\Amiga_to_ez80p_audio.asm
000790 3A173217 2B172417 
000798 1C171517 0E170617   A   422                    db 01Ch,017h,015h,017h,00Eh,017
0007A0 FF16F816 F116EA16 
0007A8 E316DB16 D416CD16   A   423                    db 0E3h,016h,0DBh,016h,0D4h,016
0007B0 C616BF16 B816B116 
0007B8 AA16A316 9C169516   A   424                    db 0AAh,016h,0A3h,016h,09Ch,016
0007C0 8E168716 80167916 
0007C8 72166C16 65165E16   A   425                    db 072h,016h,06Ch,016h,065h,016
0007D0 57165016 49164316 
0007D8 3C163516 2E162816   A   426                    db 03Ch,016h,035h,016h,02Eh,016
0007E0 21161A16 14160D16 
0007E8 06160016 F915F315   A   427                    db 006h,016h,000h,016h,0F9h,015
0007F0 EC15E615 DF15D915 
0007F8 D215CC15 C515BF15   A   428                    db 0D2h,015h,0CCh,015h,0C5h,015
000800 B815B215 AB15A515 
000808 9F159815 92158B15   A   429                    db 09Fh,015h,098h,015h,092h,015
000810 85157F15 79157215 
000818 6C156615 5F155915   A   430                    db 06Ch,015h,066h,015h,05Fh,015
000820 53154D15 47154015 
000828 3A153415 2E152815   A   431                    db 03Ah,015h,034h,015h,02Eh,015
000830 22151C15 16151015 
000838 0A150415 FE14F814   A   432                    db 00Ah,015h,004h,015h,0FEh,014
000840 F214EC14 E614E014 
000848 DA14D414 CE14C814   A   433                    db 0DAh,014h,0D4h,014h,0CEh,014
000850 C214BC14 B614B114 
000858 AB14A514 9F149914   A   434                    db 0ABh,014h,0A5h,014h,09Fh,014
000860 93148E14 88148214 
000868 7C147714 71146B14   A   435                    db 07Ch,014h,077h,014h,071h,014
000870 66146014 5A145514 
000878 4F144914 44143E14   A   436                    db 04Fh,014h,049h,014h,044h,014
000880 39143314 2E142814 
000888 22141D14 17141214   A   437                    db 022h,014h,01Dh,014h,017h,014
000890 0C140714 0114FC13 
000898 F713F113 EC13E613   A   438                    db 0F7h,013h,0F1h,013h,0ECh,013
0008A0 E113DC13 D613D113 
0008A8 CB13C613 C113       A   439                    db 0CBh,013h,0C6h,013h,0C1h,013
                           A   440    				
                           A   441    				
                           A   442    ;----------------------------------------------
                           A   443    ; EZ80P specific code ends
                           A   444    ;----------------------------------------------
                           A   445    


Errors: 11
Warnings: 0
Lines Assembled: 446
