Zilog eZ80 Macro Assembler Version 4.1 (10060805)03-Jan-11     17:28:10     page:   1


PC     Object              I  Line    Source 
                           A     1    ;----------------------------------------------
                           A     2    ; Test time taken to create / mix 4 channels of
                           A     3    ; (No actual audio output)
                           A     4    ;----------------------------------------------
                           A     5    
       00000001            A     6    ADL_mode		equ 1				; 0 if user
       00010000            A     7    load_location	equ 10000h			; anywhere 
                           A     8    
                           B     0    				include	'PROSE_header.asm'
                           B     1    
                           B     2    ;-- EZ80P Hardware equates --------------------
                           B     3    
       00000000            B     4    port_pic_data  			equ 0000h
       00000001            B     5    port_pic_ctrl		equ 0001h
       00000001            B     6    port_hw_flags			equ 0001h
       00000002            B     7    port_sdc_ctrl			equ 0002h	; this is a
       00000002            B     8    port_keyboard_data		equ 0002h
       00000003            B     9    port_sdc_data		 	equ 0003h	
       00000004            B    10    port_memory_paging		equ 0004h
       00000005            B    11    port_irq_ctrl			equ 0005h
       00000006            B    12    port_nmi_ack			equ 0006h
       00000007            B    13    port_selector			equ 0007h
                           B    14    
                           B    15    
       00000040            B    16    port_video_mode			equ 040h
                           B    17    
                           B    18    
       00000000            B    19    sdc_power				equ 0		;(port_sd_c
       00000001            B    20    sdc_cs					equ 1		;(port_sd_c
       00000002            B    21    sdc_speed				equ 2 		;(port_sd_c
                           B    22    
       00000004            B    23    sdc_serializer_busy		equ 4 		;(port_hw_f
       00000005            B    24    vrt						equ 5		;(port_hw_f
                           B    25    
                           B    26    
                           B    27    ;-- Memory locations --------------------------
                           B    28    
       00800000            B    29    hw_vram_a		equ 0800000h
       00F00000            B    30    hw_palette	equ 0f00000h
                           B    31    
                           B    32    ;----------------------------------------------
                           B    33    
                           B    34    
       00000A00            B    35    os_start equ 0a00h
                           B    36    
       00000A14            B    37    prose_return equ os_start+14h
       00000A20            B    38    prose_kernal equ os_start+20h
                           B    39    
                           B    40    ;----------------------------------------------
                           B    41    ; Kernal Jump Table values for mode PROSE
                           B    42    ;----------------------------------------------
                           B    43    		
Zilog eZ80 Macro Assembler Version 4.1 (10060805)03-Jan-11     17:28:10     page:   2


PC     Object              I  Line    Source ..\..\includes\PROSE_header.asm
       00000000            B    44    kr_mount_volumes				equ 00h	
       00000001            B    45    kr_get_device_info				equ 01h	
       00000002            B    46    kr_check_volume_format			equ 02h	
       00000003            B    47    kr_change_volume				equ 03h	
       00000004            B    48    kr_get_volume_info				equ 04h	
       00000005            B    49    kr_format_device				equ 05h	
       00000006            B    50    kr_make_dir						equ 06h
                           B    51    
       00000007            B    52    kr_change_dir					equ 07h	
       00000008            B    53    kr_parent_dir					equ 08h	
       00000009            B    54    kr_root_dir						equ 09h
       0000000A            B    55    kr_delete_dir					equ 0ah
       0000000B            B    56    kr_find_file					equ 0bh
       0000000C            B    57    kr_set_file_pointer				equ 0ch
       0000000D            B    58    kr_set_load_length				equ 0dh
       0000000E            B    59    kr_read_file					equ 0eh
                           B    60    
       0000000F            B    61    kr_erase_file					equ 0fh
       00000010            B    62    kr_rename_file					equ 10h
       00000011            B    63    kr_create_file					equ 11h
       00000012            B    64    kr_write_file					equ 12h
       00000013            B    65    kr_get_total_sectors			equ 13h
       00000014            B    66    kr_dir_list_first_entry			equ 14h
       00000015            B    67    kr_dir_list_get_entry			equ 15h
       00000016            B    68    kr_dir_list_next_entry			equ 16h
                           B    69    
       00000017            B    70    kr_read_sector					equ 17h
       00000018            B    71    kr_write_sector					equ 18h
       00000019            B    72    kr_file_sector_list				equ 19h
       0000001A            B    73    kr_get_dir_cluster				equ 1ah
       0000001B            B    74    kr_set_dir_cluster				equ 1bh
       0000001C            B    75    kr_get_dir_name					equ 1ch
       0000001D            B    76    kr_wait_key						equ 1dh
       0000001E            B    77    kr_get_key						equ 1eh
                           B    78    
       0000001F            B    79    kr_get_key_mod_flags			equ 1fh
       00000020            B    80    kr_serial_receive_header		equ 20h
       00000021            B    81    kr_serial_receive_file			equ 21h
       00000022            B    82    kr_serial_send_file				equ 22h
       00000023            B    83    kr_serial_tx_byte				equ 23h
       00000024            B    84    kr_serial_rx_byte				equ 24h
                           B    85    
       00000025            B    86    kr_print_string					equ 25h
       00000026            B    87    kr_clear_screen					equ 26h
       00000027            B    88    kr_wait_vrt						equ 27h
       00000028            B    89    kr_set_cursor_position			equ 28h
       00000029            B    90    kr_plot_char					equ 29h
       0000002A            B    91    kr_set_pen						equ 2ah
       0000002B            B    92    kr_background_colours			equ 2bh
       0000002C            B    93    kr_draw_cursor					equ 2ch
       0000002D            B    94    kr_get_pen						equ 2dh
       0000002E            B    95    kr_scroll_up					equ 2eh
Zilog eZ80 Macro Assembler Version 4.1 (10060805)03-Jan-11     17:28:10     page:   3


PC     Object              I  Line    Source ..\..\includes\PROSE_header.asm
       0000002F            B    96    kr_os_display					equ 2fh
       00000030            B    97    kr_get_display_size				equ 30h
       00000031            B    98    kr_get_charmap_addr_xy			equ 31h
       00000032            B    99    kr_get_cursor_position			equ 32h
                           B   100    
       00000033            B   101    kr_set_envar					equ 33h
       00000034            B   102    kr_get_envar					equ 34h
       00000035            B   103    kr_delete_envar					equ 35h
                           B   104    
       00000036            B   105    kr_enable_mouse					equ 36h
       00000037            B   106    kr_get_mouse_position			equ 37h
       00000038            B   107    kr_get_mouse_disp				equ 38h
                           B   108    
       00000039            B   109    kr_time_delay					equ 39h
       0000003A            B   110    kr_compare_strings				equ 3ah
       0000003B            B   111    kr_hex_byte_to_ascii			equ 3bh
       0000003C            B   112    kr_ascii_to_hex_word			equ 3ch
       0000003D            B   113    kr_get_string					equ 3dh
                           B   114    
       0000003E            B   115    kr_get_version					equ 3eh
       0000003F            B   116    kr_dont_store_registers			equ 3fh
       00000040            B   117    kr_os_video_settings			equ 40h
       00000041            B   118    kr_read_rtc						equ 41h
       00000042            B   119    kr_write_rtc					equ 42h
                           B   120    
                           B   121    ;----------------------------------------------
                           B   122    ; Standard PROSE executable header
                           B   123    ;----------------------------------------------
                           B   124    
                           B   125    
                           B   126    	IF ADL_mode = 0
                           B   127    		org load_location&0ffffh	; if Z80 mo
                           B   128    	ELSE
010000                     B   129    		org load_location			; otherwise
                           B   130    	ENDIF
                           B   131    	
                           B   132    		.assume ADL = 1				; All PROSE
                           B   133    
010000 18 0E               B   134    		jr skip_header				; $0 - Jump
010002 50524F              B   135    		db 'PRO'					; $2 - ASCI
010005 000001              B   136    mb_loc	dw24 load_location			; $5 - Desi
010008 000000              B   137    		dw24 0						; $8 - If >
01000B 0000                B   138    		dw 0						; $B - If >
01000D 0000                B   139    		dw 0						; $D - If >
01000F 01                  B   140    		db ADL_mode					; $F - Z80 
                           B   141    
010010                     B   142    skip_header
                           B   143    	
                           B   144    	IF ADL_mode = 0 
                           B   145    		
                           B   146    mbase_offset equ load_location & 0ff0000h
                           B   147    
Zilog eZ80 Macro Assembler Version 4.1 (10060805)03-Jan-11     17:28:10     page:   4


PC     Object              I  Line    Source ..\..\includes\PROSE_header.asm
                           B   148    		ld a,load_location/65536	; Additiona
                           B   149    		ld MB,a						; Set MBASE
                           B   150    		jp.sis go_z80_mode			; switches 
                           B   151    
                           B   152    go_z80_mode
                           B   153    
                           B   154    		.assume ADL = 0
                           B   155    
                           B   156    	ENDIF
                           B   157    	
                           B   158    ;----------------------------------------------
                           B   159    	
                           A    10    
                           A    11    ;----------------------------------------------
                           A    12    ; ADL-mode user program follows..
                           A    13    ;----------------------------------------------
                           A    14    
010010 3E27                A    15    main_loop		ld a,kr_wait_vrt
010012 5BCD200A 00         A    16    				call.lil prose_kernal
                           A    17    
010017 01001000            A    18    				ld bc,1000h
01001B 0B                  A    19    rwait1			dec bc
01001C 78                  A    20    				ld a,b
01001D B1                  A    21    				or c
01001E 20 FB               A    22    				jr nz,rwait1
                           A    23    				
010020 21888800            A    24    				ld hl,08888h
010024 220000F0            A    25    				ld (hw_palette),hl
                           A    26    				
010028 CD 50 00 01         A    27    				call make_channel_0
                           A    28    			
01002C 21C8C800            A    29    				ld hl,0c8c8h
010030 220000F0            A    30    				ld (hw_palette),hl
                           A    31    
010034 CD 9B 00 01         A    32    				call mix_channels
                           A    33    				
010038 21000000            A    34    				ld hl,0
01003C 220000F0            A    35    				ld (hw_palette),hl
                           A    36    				
010040 3E1E                A    37    				ld a,kr_get_key
010042 5BCD200A 00         A    38    				call.lil prose_kernal
010047 FE76                A    39    				cp 076h
010049 20 C5               A    40    				jr nz,main_loop
                           A    41    				
01004B AF                  A    42    				xor a
01004C C3140A00            A    43    				jp prose_return
                           A    44    
                           A    45    ;----------------------------------------------
                           A    46    
010050                     A    47    make_channel_0
                           A    48    
010050 DD2A BB 00 01       A    49    				ld ix,(chan0_loc_work)			Zilog eZ80 Macro Assembler Version 4.1 (10060805)03-Jan-11     17:28:10     page:   5


PC     Object              I  Line    Source E:\MY_OWN~1\Coding\EZ80PR~1\Code\PROSEA~1\AUDIO_~1\src\mix_test.asm
010055 11 00 00 40         A    50    				ld de,period_constant			010059 2A BE 00 01         A    51    				ld hl,(chan0_loc_frac)
01005D ED4B C4 00 01       A    52    				ld bc,(chan0_len_work)
                           A    53    				
010062 FD21 00 02 01       A    54    				ld iy,channel_0_data			010067 D9                  A    55    				exx
010068 0600                A    56    				ld b,0							01006A D9                  A    57    mch0lp			exx
01006B 19                  A    58    				add hl,de						01006C 30 12               A    59    				jr nc,gotloc					01006E DD23                A    60    				inc ix							010070 EDA1                A    61    				cpi								010072 EA 80 00 01         A    62    				jp pe,gotloc
010076 ED4B C1 00 01       A    63    				ld bc,(chan0_len)				01007B DD2A B8 00 01       A    64    				ld ix,(chan0_loc)				                           A    65    	
010080 DD7E00              A    66    gotloc			ld a,(ix)
010083 FD7700              A    67    				ld (iy),a
010086 FD23                A    68    				inc iy
010088 D9                  A    69    				exx
010089 10 DF               A    70    				djnz mch0lp
01008B D9                  A    71    				exx
01008C ED43 C4 00 01       A    72    				ld (chan0_len_work),bc			010091 DD22 BB 00 01       A    73    				ld (chan0_loc_work),ix
010096 22 BE 00 01         A    74    				ld (chan0_loc_frac),hl
01009A C9                  A    75    				ret
                           A    76    				
                           A    77    ;----------------------------------------------
                           A    78    
01009B 21 00 02 01         A    79    mix_channels	ld hl,channel_0_data
01009F 11 00 06 01         A    80    				ld de,mixed_data
0100A3 4C                  A    81    				ld c,h
0100A4 0600                A    82    				ld b,0
0100A6 61                  A    83    mixloop			ld h,c
0100A7 7E                  A    84    				ld a,(hl)
0100A8 24                  A    85    				inc h
0100A9 86                  A    86    				add a,(hl)
0100AA 24                  A    87    				inc h
0100AB 86                  A    88    				add a,(hl)
0100AC 24                  A    89    				inc h
0100AD 86                  A    90    				add a,(hl)
0100AE CB2F                A    91    				sra a
0100B0 CB2F                A    92    				sra a
0100B2 12                  A    93    				ld (de),a
0100B3 1C                  A    94    				inc e
0100B4 2C                  A    95    				inc l
0100B5 10 EF               A    96    				djnz mixloop
0100B7 C9                  A    97    				ret
                           A    98    				
                           A    99    ;----------------------------------------------
                           A   100    			
       00400000            A   101    period_constant equ 0400000h					Zilog eZ80 Macro Assembler Version 4.1 (10060805)03-Jan-11     17:28:10     page:   6


PC     Object              I  Line    Source E:\MY_OWN~1\Coding\EZ80PR~1\Code\PROSEA~1\AUDIO_~1\src\mix_test.asm
                           A   102    
0100B8 000701              A   103    chan0_loc	 	dw24 sample_a
0100BB B80001              A   104    chan0_loc_work	dw24 chan0_loc
0100BE 000000              A   105    chan0_loc_frac	dw24 0
                           A   106    
0100C1 000100              A   107    chan0_len		dw24 256
0100C4 C10001              A   108    chan0_len_work	dw24 chan0_len
                           A   109    
0100C7 800000              A   110    chan0_period	dw24 128
0100CA 00                  A   111    chan0_volume	db 0
                           A   112    
                           A   113    ;----------------------------------------------
                           A   114    
010200                     A   115    			org 10200h
                           A   116    
010200 0A 0A 0A 0A 0A 0A   A   117    channel_0_data	blkb 256,10
010206 0A 0A 0A 0A 0A 0A 
01020C 0A 0A 0A 0A 0A 0A 
010212 0A 0A 0A 0A 0A 0A 
010218 0A 0A 0A 0A 0A 0A 
01021E 0A 0A 0A 0A 0A 0A 
010224 0A 0A 0A 0A 0A 0A 
01022A 0A 0A 0A 0A 0A 0A 
010230 0A 0A 0A 0A 0A 0A 
010236 0A 0A 0A 0A 0A 0A 
01023C 0A 0A 0A 0A 0A 0A 
010242 0A 0A 0A 0A 0A 0A 
010248 0A 0A 0A 0A 0A 0A 
01024E 0A 0A 0A 0A 0A 0A 
010254 0A 0A 0A 0A 0A 0A 
01025A 0A 0A 0A 0A 0A 0A 
010260 0A 0A 0A 0A 0A 0A 
010266 0A 0A 0A 0A 0A 0A 
01026C 0A 0A 0A 0A 0A 0A 
010272 0A 0A 0A 0A 0A 0A 
010278 0A 0A 0A 0A 0A 0A 
01027E 0A 0A 0A 0A 0A 0A 
010284 0A 0A 0A 0A 0A 0A 
01028A 0A 0A 0A 0A 0A 0A 
010290 0A 0A 0A 0A 0A 0A 
010296 0A 0A 0A 0A 0A 0A 
01029C 0A 0A 0A 0A 0A 0A 
0102A2 0A 0A 0A 0A 0A 0A 
0102A8 0A 0A 0A 0A 0A 0A 
0102AE 0A 0A 0A 0A 0A 0A 
0102B4 0A 0A 0A 0A 0A 0A 
0102BA 0A 0A 0A 0A 0A 0A 
0102C0 0A 0A 0A 0A 0A 0A 
0102C6 0A 0A 0A 0A 0A 0A 
0102CC 0A 0A 0A 0A 0A 0A 
0102D2 0A 0A 0A 0A 0A 0A 
0102D8 0A 0A 0A 0A 0A 0A 
Zilog eZ80 Macro Assembler Version 4.1 (10060805)03-Jan-11     17:28:10     page:   7


PC     Object              I  Line    Source E:\MY_OWN~1\Coding\EZ80PR~1\Code\PROSEA~1\AUDIO_~1\src\mix_test.asm
0102DE 0A 0A 0A 0A 0A 0A 
0102E4 0A 0A 0A 0A 0A 0A 
0102EA 0A 0A 0A 0A 0A 0A 
0102F0 0A 0A 0A 0A 0A 0A 
0102F6 0A 0A 0A 0A 0A 0A 
0102FC 0A 0A 0A 0A 
010300 14 14 14 14 14 14   A   118    channel_1_data	blkb 256,20
010306 14 14 14 14 14 14 
01030C 14 14 14 14 14 14 
010312 14 14 14 14 14 14 
010318 14 14 14 14 14 14 
01031E 14 14 14 14 14 14 
010324 14 14 14 14 14 14 
01032A 14 14 14 14 14 14 
010330 14 14 14 14 14 14 
010336 14 14 14 14 14 14 
01033C 14 14 14 14 14 14 
010342 14 14 14 14 14 14 
010348 14 14 14 14 14 14 
01034E 14 14 14 14 14 14 
010354 14 14 14 14 14 14 
01035A 14 14 14 14 14 14 
010360 14 14 14 14 14 14 
010366 14 14 14 14 14 14 
01036C 14 14 14 14 14 14 
010372 14 14 14 14 14 14 
010378 14 14 14 14 14 14 
01037E 14 14 14 14 14 14 
010384 14 14 14 14 14 14 
01038A 14 14 14 14 14 14 
010390 14 14 14 14 14 14 
010396 14 14 14 14 14 14 
01039C 14 14 14 14 14 14 
0103A2 14 14 14 14 14 14 
0103A8 14 14 14 14 14 14 
0103AE 14 14 14 14 14 14 
0103B4 14 14 14 14 14 14 
0103BA 14 14 14 14 14 14 
0103C0 14 14 14 14 14 14 
0103C6 14 14 14 14 14 14 
0103CC 14 14 14 14 14 14 
0103D2 14 14 14 14 14 14 
0103D8 14 14 14 14 14 14 
0103DE 14 14 14 14 14 14 
0103E4 14 14 14 14 14 14 
0103EA 14 14 14 14 14 14 
0103F0 14 14 14 14 14 14 
0103F6 14 14 14 14 14 14 
0103FC 14 14 14 14 
010400 1E 1E 1E 1E 1E 1E   A   119    channel_2_data	blkb 256,30
010406 1E 1E 1E 1E 1E 1E 
01040C 1E 1E 1E 1E 1E 1E 
Zilog eZ80 Macro Assembler Version 4.1 (10060805)03-Jan-11     17:28:10     page:   8


PC     Object              I  Line    Source E:\MY_OWN~1\Coding\EZ80PR~1\Code\PROSEA~1\AUDIO_~1\src\mix_test.asm
010412 1E 1E 1E 1E 1E 1E 
010418 1E 1E 1E 1E 1E 1E 
01041E 1E 1E 1E 1E 1E 1E 
010424 1E 1E 1E 1E 1E 1E 
01042A 1E 1E 1E 1E 1E 1E 
010430 1E 1E 1E 1E 1E 1E 
010436 1E 1E 1E 1E 1E 1E 
01043C 1E 1E 1E 1E 1E 1E 
010442 1E 1E 1E 1E 1E 1E 
010448 1E 1E 1E 1E 1E 1E 
01044E 1E 1E 1E 1E 1E 1E 
010454 1E 1E 1E 1E 1E 1E 
01045A 1E 1E 1E 1E 1E 1E 
010460 1E 1E 1E 1E 1E 1E 
010466 1E 1E 1E 1E 1E 1E 
01046C 1E 1E 1E 1E 1E 1E 
010472 1E 1E 1E 1E 1E 1E 
010478 1E 1E 1E 1E 1E 1E 
01047E 1E 1E 1E 1E 1E 1E 
010484 1E 1E 1E 1E 1E 1E 
01048A 1E 1E 1E 1E 1E 1E 
010490 1E 1E 1E 1E 1E 1E 
010496 1E 1E 1E 1E 1E 1E 
01049C 1E 1E 1E 1E 1E 1E 
0104A2 1E 1E 1E 1E 1E 1E 
0104A8 1E 1E 1E 1E 1E 1E 
0104AE 1E 1E 1E 1E 1E 1E 
0104B4 1E 1E 1E 1E 1E 1E 
0104BA 1E 1E 1E 1E 1E 1E 
0104C0 1E 1E 1E 1E 1E 1E 
0104C6 1E 1E 1E 1E 1E 1E 
0104CC 1E 1E 1E 1E 1E 1E 
0104D2 1E 1E 1E 1E 1E 1E 
0104D8 1E 1E 1E 1E 1E 1E 
0104DE 1E 1E 1E 1E 1E 1E 
0104E4 1E 1E 1E 1E 1E 1E 
0104EA 1E 1E 1E 1E 1E 1E 
0104F0 1E 1E 1E 1E 1E 1E 
0104F6 1E 1E 1E 1E 1E 1E 
0104FC 1E 1E 1E 1E 
010500 28 28 28 28 28 28   A   120    channel_3_data	blkb 256,40
010506 28 28 28 28 28 28 
01050C 28 28 28 28 28 28 
010512 28 28 28 28 28 28 
010518 28 28 28 28 28 28 
01051E 28 28 28 28 28 28 
010524 28 28 28 28 28 28 
01052A 28 28 28 28 28 28 
010530 28 28 28 28 28 28 
010536 28 28 28 28 28 28 
01053C 28 28 28 28 28 28 
010542 28 28 28 28 28 28 
Zilog eZ80 Macro Assembler Version 4.1 (10060805)03-Jan-11     17:28:10     page:   9


PC     Object              I  Line    Source E:\MY_OWN~1\Coding\EZ80PR~1\Code\PROSEA~1\AUDIO_~1\src\mix_test.asm
010548 28 28 28 28 28 28 
01054E 28 28 28 28 28 28 
010554 28 28 28 28 28 28 
01055A 28 28 28 28 28 28 
010560 28 28 28 28 28 28 
010566 28 28 28 28 28 28 
01056C 28 28 28 28 28 28 
010572 28 28 28 28 28 28 
010578 28 28 28 28 28 28 
01057E 28 28 28 28 28 28 
010584 28 28 28 28 28 28 
01058A 28 28 28 28 28 28 
010590 28 28 28 28 28 28 
010596 28 28 28 28 28 28 
01059C 28 28 28 28 28 28 
0105A2 28 28 28 28 28 28 
0105A8 28 28 28 28 28 28 
0105AE 28 28 28 28 28 28 
0105B4 28 28 28 28 28 28 
0105BA 28 28 28 28 28 28 
0105C0 28 28 28 28 28 28 
0105C6 28 28 28 28 28 28 
0105CC 28 28 28 28 28 28 
0105D2 28 28 28 28 28 28 
0105D8 28 28 28 28 28 28 
0105DE 28 28 28 28 28 28 
0105E4 28 28 28 28 28 28 
0105EA 28 28 28 28 28 28 
0105F0 28 28 28 28 28 28 
0105F6 28 28 28 28 28 28 
0105FC 28 28 28 28 
                           A   121    
010600 00 00 00 00 00 00   A   122    mixed_data		blkb 256,0
010606 00 00 00 00 00 00 
01060C 00 00 00 00 00 00 
010612 00 00 00 00 00 00 
010618 00 00 00 00 00 00 
01061E 00 00 00 00 00 00 
010624 00 00 00 00 00 00 
01062A 00 00 00 00 00 00 
010630 00 00 00 00 00 00 
010636 00 00 00 00 00 00 
01063C 00 00 00 00 00 00 
010642 00 00 00 00 00 00 
010648 00 00 00 00 00 00 
01064E 00 00 00 00 00 00 
010654 00 00 00 00 00 00 
01065A 00 00 00 00 00 00 
010660 00 00 00 00 00 00 
010666 00 00 00 00 00 00 
01066C 00 00 00 00 00 00 
010672 00 00 00 00 00 00 
Zilog eZ80 Macro Assembler Version 4.1 (10060805)03-Jan-11     17:28:10     page:  10


PC     Object              I  Line    Source E:\MY_OWN~1\Coding\EZ80PR~1\Code\PROSEA~1\AUDIO_~1\src\mix_test.asm
010678 00 00 00 00 00 00 
01067E 00 00 00 00 00 00 
010684 00 00 00 00 00 00 
01068A 00 00 00 00 00 00 
010690 00 00 00 00 00 00 
010696 00 00 00 00 00 00 
01069C 00 00 00 00 00 00 
0106A2 00 00 00 00 00 00 
0106A8 00 00 00 00 00 00 
0106AE 00 00 00 00 00 00 
0106B4 00 00 00 00 00 00 
0106BA 00 00 00 00 00 00 
0106C0 00 00 00 00 00 00 
0106C6 00 00 00 00 00 00 
0106CC 00 00 00 00 00 00 
0106D2 00 00 00 00 00 00 
0106D8 00 00 00 00 00 00 
0106DE 00 00 00 00 00 00 
0106E4 00 00 00 00 00 00 
0106EA 00 00 00 00 00 00 
0106F0 00 00 00 00 00 00 
0106F6 00 00 00 00 00 00 
0106FC 00 00 00 00 
                           A   123    
                           A   124    ;----------------------------------------------
                           A   125    
010700 7F 7F 7F 7F 7F 7F   A   126    sample_a		blkb 128,07fh
010706 7F 7F 7F 7F 7F 7F 
01070C 7F 7F 7F 7F 7F 7F 
010712 7F 7F 7F 7F 7F 7F 
010718 7F 7F 7F 7F 7F 7F 
01071E 7F 7F 7F 7F 7F 7F 
010724 7F 7F 7F 7F 7F 7F 
01072A 7F 7F 7F 7F 7F 7F 
010730 7F 7F 7F 7F 7F 7F 
010736 7F 7F 7F 7F 7F 7F 
01073C 7F 7F 7F 7F 7F 7F 
010742 7F 7F 7F 7F 7F 7F 
010748 7F 7F 7F 7F 7F 7F 
01074E 7F 7F 7F 7F 7F 7F 
010754 7F 7F 7F 7F 7F 7F 
01075A 7F 7F 7F 7F 7F 7F 
010760 7F 7F 7F 7F 7F 7F 
010766 7F 7F 7F 7F 7F 7F 
01076C 7F 7F 7F 7F 7F 7F 
010772 7F 7F 7F 7F 7F 7F 
010778 7F 7F 7F 7F 7F 7F 
01077E 7F 7F 
010780 80 80 80 80 80 80   A   127    				blkb 128,080h
010786 80 80 80 80 80 80 
01078C 80 80 80 80 80 80 
010792 80 80 80 80 80 80 
Zilog eZ80 Macro Assembler Version 4.1 (10060805)03-Jan-11     17:28:10     page:  11


PC     Object              I  Line    Source E:\MY_OWN~1\Coding\EZ80PR~1\Code\PROSEA~1\AUDIO_~1\src\mix_test.asm
010798 80 80 80 80 80 80 
01079E 80 80 80 80 80 80 
0107A4 80 80 80 80 80 80 
0107AA 80 80 80 80 80 80 
0107B0 80 80 80 80 80 80 
0107B6 80 80 80 80 80 80 
0107BC 80 80 80 80 80 80 
0107C2 80 80 80 80 80 80 
0107C8 80 80 80 80 80 80 
0107CE 80 80 80 80 80 80 
0107D4 80 80 80 80 80 80 
0107DA 80 80 80 80 80 80 
0107E0 80 80 80 80 80 80 
0107E6 80 80 80 80 80 80 
0107EC 80 80 80 80 80 80 
0107F2 80 80 80 80 80 80 
0107F8 80 80 80 80 80 80 
0107FE 80 80 
                           A   128    				


Errors: 0
Warnings: 0
Lines Assembled: 288
