
Hexadecimal

Area                               Addr   Size   Decimal Bytes (Attributes)
--------------------------------   ----   ----   ------- ----- ------------
.  .ABS.                           0000   0000 =      0. bytes (ABS,CON)

      Value  Global
   --------  --------------------------------
     0000    l__BSS
     0000    l__CABS
     0000    l__GSINIT
     0000    l__HEAP
     0000    l__HEAP_END
     0000    l__HOME
     0000    l__OVERLAY
     0000    s__HEADER
     0001    l__GSFINAL
     0037    l__DATA
     0759    l__FLOS_PROXY_CODE
     1CA0    l__CODE
     5044    l__HEADER
     5080    s__FLOS_PROXY_CODE
     5A80    s__CODE
     7720    s__GSFINAL
     7720    s__GSINIT
     7720    s__HOME
     7800    s__DATA
     7837    s__BSS
     7837    s__CABS
     7837    s__HEAP
     7837    s__HEAP_END
     7837    s__OVERLAY

Hexadecimal

Area                               Addr   Size   Decimal Bytes (Attributes)
--------------------------------   ----   ----   ------- ----- ------------
_CODE                              5A80   1CA0 =   7328. bytes (REL,CON)

      Value  Global
   --------  --------------------------------
     5A80    __clock
     5A81    _exit
     5A93    flos_sp
     5A95    _flos_cmdline
     5A97    _flos_spawn_cmd
     5ABF    _MarkFrameTime
     5ABF    _MarkFrameTime_start
     5ADA    _FLOS_GetLastError
     5ADA    _FLOS_GetLastError_start
     5ADA    _MarkFrameTime_end
     5AE2    _FLOS_CheckDiskAvailable
     5AE2    _FLOS_CheckDiskAvailable_start
     5AE2    _FLOS_GetLastError_end
     5B08    _FLOS_CheckDiskAvailable_end
     5B08    _FLOS_MakeDir
     5B08    _FLOS_MakeDir_start
     5B52    _FLOS_ChangeDir
     5B52    _FLOS_ChangeDir_start
     5B52    _FLOS_MakeDir_end
     5B9C    _FLOS_ChangeDir_end
     5B9C    _FLOS_ParentDir
     5B9C    _FLOS_ParentDir_start
     5BCC    _FLOS_ParentDir_end
     5BCC    _FLOS_RootDir
     5BCC    _FLOS_RootDir_start
     5BE2    _FLOS_DeleteDir
     5BE2    _FLOS_DeleteDir_start
     5BE2    _FLOS_RootDir_end
     5C2C    _FLOS_DeleteDir_end
     5C2C    _FLOS_StoreDirPosition
     5C2C    _FLOS_StoreDirPosition_start
     5C42    _FLOS_RestoreDirPosition
     5C42    _FLOS_RestoreDirPosition_start
     5C42    _FLOS_StoreDirPosition_end
     5C58    _FLOS_GetTotalSectors
     5C58    _FLOS_GetTotalSectors_start
     5C58    _FLOS_RestoreDirPosition_end
     5C7A    _FLOS_FindFile
     5C7A    _FLOS_FindFile_start
     5C7A    _FLOS_GetTotalSectors_end
     5D0C    _FLOS_FindFile_end
     5D0C    _FLOS_SetLoadLength
     5D0C    _FLOS_SetLoadLength_start
     5D48    _FLOS_SetFilePointer
     5D48    _FLOS_SetFilePointer_start
     5D48    _FLOS_SetLoadLength_end
     5D84    _FLOS_ForceLoad
     5D84    _FLOS_ForceLoad_start
     5D84    _FLOS_SetFilePointer_end
     5DD8    _FLOS_CreateFile
     5DD8    _FLOS_CreateFile_start
     5DD8    _FLOS_ForceLoad_end
     5E36    _FLOS_CreateFile_end
     5E36    _FLOS_EraseFile
     5E36    _FLOS_EraseFile_start
     5E80    _FLOS_EraseFile_end
     5E80    _FLOS_WriteBytesToFile
     5E80    _FLOS_WriteBytesToFile_start
     5F00    _FLOS_PrintString
     5F00    _FLOS_PrintString_start
     5F00    _FLOS_WriteBytesToFile_end
     5F30    _FLOS_ClearScreen
     5F30    _FLOS_ClearScreen_start
     5F30    _FLOS_PrintString_end
     5F46    _FLOS_ClearScreen_end
     5F46    _FLOS_FlosDisplay
     5F46    _FLOS_FlosDisplay_start
     5F5C    _FLOS_FlosDisplay_end
     5F5C    _FLOS_WaitVRT
     5F5C    _FLOS_WaitVRT_start
     5F72    _FLOS_SetPen
     5F72    _FLOS_SetPen_start
     5F72    _FLOS_WaitVRT_end
     5F9C    _FLOS_SetCursorPos
     5F9C    _FLOS_SetCursorPos_start
     5F9C    _FLOS_SetPen_end
     5FD5    _FLOS_SetCursorPos_end
     5FD5    _FLOS_WaitKeyPress
     5FD5    _FLOS_WaitKeyPress_start
     6014    _FLOS_GetKeyPress
     6014    _FLOS_GetKeyPress_start
     6014    _FLOS_WaitKeyPress_end
     6064    _FLOS_DirListFirstEntry
     6064    _FLOS_DirListFirstEntry_start
     6064    _FLOS_GetKeyPress_end
     607A    _FLOS_DirListFirstEntry_end
     607A    _FLOS_DirListGetEntry
     607A    _FLOS_DirListGetEntry_start
     60F6    _FLOS_DirListGetEntry_end
     60F6    _FLOS_DirListNextEntry
     60F6    _FLOS_DirListNextEntry_start
     6110    _FLOS_DirListNextEntry_end
     6110    _FLOS_GetDirName
     6110    _FLOS_GetDirName_start
     613C    _FLOS_GetDirName_end
     613C    _FLOS_GetVersion
     613C    _FLOS_GetVersion_start
     6186    _FLOS_GetVersion_end
     6186    _FLOS_PrintStringLFCR
     6186    _FLOS_PrintStringLFCR_start
     61A4    _FLOS_PrintStringLFCR_end
     61A6    _FLOS_GetCmdLine
     61A6    _FLOS_GetCmdLine_start
     61AA    _FLOS_GetCmdLine_end
     61AA    _FLOS_SetSpawnCmdLine
     61AA    _FLOS_SetSpawnCmdLine_start
     61E5    _FLOS_SetSpawnCmdLine_end
     61E5    _main
     61E5    _main_start
     62A6    _main_end
     62A6    _own_sp
     62D2    _proccess_cmd_line
     62D2    _proccess_cmd_line_start
     62EC    _proccess_cmd_line_end
     62F3    _TestVersion
     62F3    _TestVersion_start
     635D    _TestVersion_end
     636B    _test1
     636B    _test1_start
     6447    _test1_end
     649D    _test2
     649D    _test2_start
     65B5    _test2_end
     65ED    _test3
     65ED    _test3_start
     66A8    _test3_end
     6749    _test4
     6749    _test4_start
     67FA    _test4_end
     6899    _PrintCurDirName
     6899    _PrintCurDirName_start
     68C2    _PrintCurDirName_end
     68E6    _test5
     68E6    _test5_start
     6978    _test5_end
     69C2    _test6
     69C2    _test6_start
     6A71    _test6_end
     6AA7    _DiagMessage
     6AA7    _DiagMessage_start
     6AFB    _DiagMessage_end
     6B08    _PrintNum
     6B08    _PrintNum_start
     6B38    _PrintNum_end
     6B38    _WaitKeyPress
     6B38    _WaitKeyPress_start
     6B69    _GetSP
     6B69    _GetSP_start
     6B69    _WaitKeyPress_end
     6B6E    __uitoa
     6B6E    __uitoa_start
     6C3B    __itoa
     6C3B    __itoa_start
     6C3B    __uitoa_end
     6C8E    __itoa_end
     6C8E    __ultoa
     6C8E    __ultoa_start
     6D64    __ltoa
     6D64    __ltoa_start
     6D64    __ultoa_end
     6DCF    __ltoa_end
     6DCF    __mullong_rrf_s
     6DCF    __mullong_rrx_s
     6DD2    __modslong_rrf_s
     6DD2    __modslong_rrx_s
     6DD5    __modulong_rrf_s
     6DD5    __modulong_rrx_s
     6DD8    __divslong_rrf_s
     6DD8    __divslong_rrx_s
     6DDB    __divulong_rrf_s
     6DDB    __divulong_rrx_s
     6DDE    __mulint_rrf_s
     6DE4    __divsint_rrf_s
     6DEA    __divuint_rrf_s
     6DF0    __mulschar_rrf_s
     6DF6    __divschar_rrf_s
     6DFC    __modschar_rrf_s
     6E02    __muluchar_rrf_s
     6E08    __divuchar_rrf_s
     6E0E    __moduchar_rrf_s
     6E14    __mulsuchar_rrf_s
     6E1A    __divsuchar_rrf_s
     6E20    __modsuchar_rrf_s
     6E26    __muluschar_rrf_s
     6E2C    __divuschar_rrf_s
     6E32    __moduschar_rrf_s
     6E38    __modsint_rrf_s
     6E3E    __moduint_rrf_s
     6E44    __rrulong_rrf_s
     6E4A    __rrslong_rrf_s
     6E50    __rlulong_rrf_s
     6E56    __rlslong_rrf_s
     6E5C    _strcat
     6E5C    _strcat_start
     6E87    _strcat_end
     6E87    _strlen
     6EA2    __mullong
     6EA2    __mullong_start
     717E    __divschar_rrx_s
     717E    __mullong_end
     7185    __divschar_rrx_hds
     718C    __modschar_rrx_s
     7193    __modschar_rrx_hds
     719A    __divsint_rrx_s
     71A6    __divsint_rrx_hds
     71AE    __modsint_rrx_s
     71BA    __modsint_rrx_hds
     71C2    __moduchar_rrx_s
     71C9    __moduchar_rrx_hds
     71D0    __moduint_rrx_s
     71DC    __moduint_rrx_hds
     71E4    __moduschar_rrx_s
     71F7    __rrulong_rrx_s
     7214    __rrslong_rrx_s
     7231    __rlslong_rrx_s
     7231    __rlulong_rrx_s
     724E    __divuchar_rrx_s
     7255    __divuchar_rrx_hds
     725C    __divuint_rrx_s
     7268    __divuint_rrx_hds
     7270    __divsuchar_rrx_s
     727F    __modsuchar_rrx_s
     728E    __divuschar_rrx_s
     72A1    .mod8
     72A1    __div8
     72A9    .mod16
     72A9    __div16
     72DF    .modu8
     72DF    __divu8
     72E2    .modu16
     72E2    __divu16
     7314    __muluchar_rrx_s
     7327    __mulsuchar_rrx_s
     7332    __muluschar_rrx_s
     733D    __mulschar_rrx_s
     7344    __mulschar_rrx_hds
     7350    __modslong
     7350    __modslong_start
     7426    __modslong_end
     7426    __modulong
     7426    __modulong_start
     7537    __divslong
     7537    __divslong_start
     7537    __modulong_end
     761A    __divslong_end
     761A    __mulint_rrx_s
     7626    __mulint_rrx_hds
     7626    __muluchar_rrx_hds
     7628    __mul16
     763E    __divulong
     763E    __divulong_start
     7720    __divulong_end



Hexadecimal

Area                               Addr   Size   Decimal Bytes (Attributes)
--------------------------------   ----   ----   ------- ----- ------------
_GSINIT                            7720   0000 =      0. bytes (REL,CON)

      Value  Global
   --------  --------------------------------
     7720    gsinit


Hexadecimal

Area                               Addr   Size   Decimal Bytes (Attributes)
--------------------------------   ----   ----   ------- ----- ------------
_DATA                              7800   0037 =     55. bytes (REL,CON)

      Value  Global
   --------  --------------------------------
     7800    _g_a1_byte_result
     7801    _g_flos_lasterror
     7802    _g_flos_hw_lasterror
     7803    _pFunc
     7805    _pFilename
     7807    _myFile
     780E    _buffer
     782F    _buf






Hexadecimal

Area                               Addr   Size   Decimal Bytes (Attributes)
--------------------------------   ----   ----   ------- ----- ------------
_FLOS_PROXY_CODE                   5080   0759 =   1881. bytes (REL,CON)

      Value  Global
   --------  --------------------------------
     5080    _flos_proxy_code
MODULES
	FILE C:\_v6z80p_13_04_2009/Contributions/Valen/c_programs/c_support/crt/obj/crt0_v6z80p.o
		NAME crt0
	FILE C:\_v6z80p_13_04_2009/Contributions/Valen/c_programs/c_support/os_interface_for_c/obj/i_flos.o
		NAME i_flos
	FILE C:\_v6z80p_13_04_2009/Contributions/Valen/c_programs/c_support/os_proxy/obj/flos_proxy_code.o
		NAME flos_proxy_code
	FILE C:\_v6z80p_13_04_2009/Contributions/Valen/c_programs/src/test1/obj/myheap.o
	FILE obj/test1.o
		NAME test1
LIBRARIES
	LIBRARY C:\Program Files\SDCC\bin\..\lib\z80/z80.lib
		MODULE _itoa.o
	LIBRARY C:\Program Files\SDCC\bin\..\lib\z80/z80.lib
		MODULE _ltoa.o
	LIBRARY C:\Program Files\SDCC\bin\..\lib\z80/z80.lib
		MODULE stubs.o
	LIBRARY C:\Program Files\SDCC\bin\..\lib\z80/z80.lib
		MODULE _strcat.o
	LIBRARY C:\Program Files\SDCC\bin\..\lib\z80/z80.lib
		MODULE strlen.o
	LIBRARY C:\Program Files\SDCC\bin\..\lib\z80/z80.lib
		MODULE _mullong.o
	LIBRARY C:\Program Files\SDCC\bin\..\lib\z80/z80.lib
		MODULE divsigned.o
	LIBRARY C:\Program Files\SDCC\bin\..\lib\z80/z80.lib
		MODULE mod.o
	LIBRARY C:\Program Files\SDCC\bin\..\lib\z80/z80.lib
		MODULE shift.o
	LIBRARY C:\Program Files\SDCC\bin\..\lib\z80/z80.lib
		MODULE div.o
	LIBRARY C:\Program Files\SDCC\bin\..\lib\z80/z80.lib
		MODULE mulchar.o
	LIBRARY C:\Program Files\SDCC\bin\..\lib\z80/z80.lib
		MODULE _modslong.o
	LIBRARY C:\Program Files\SDCC\bin\..\lib\z80/z80.lib
		MODULE _modulong.o
	LIBRARY C:\Program Files\SDCC\bin\..\lib\z80/z80.lib
		MODULE _divslong.o
	LIBRARY C:\Program Files\SDCC\bin\..\lib\z80/z80.lib
		MODULE mul.o
	LIBRARY C:\Program Files\SDCC\bin\..\lib\z80/z80.lib
		MODULE _divulong.o
USERBASEDEF
	_CODE = 0x5a80
	_DATA = 0x7800
	_FLOS_PROXY_CODE=0x5080
