Zilog eZ80 Macro Assembler Version 4.1 (10060805)02-Feb-11     16:18:35     page:   1


PC     Object              I  Line    Source 
                           A     1    ; Z80-mode Protracker Player. Play at 60Hz (onl
                           A     2    ; Preload samples to $c00000
                           A     3    
                           A     4    ;----------------------------------------------
                           A     5    ; Set these two values to suit user program
                           A     6    ;----------------------------------------------
                           A     7    
       00000000            A     8    ADL_mode		equ 0				; 0 if user
       00010000            A     9    load_location	equ 10000h			; anywhere 
                           A    10    
                           B     0    				include	'PROSE_header.asm'
                           B     1    
                           B     2    ;-- EZ80P Hardware equates --------------------
                           B     3    
       00000000            B     4    port_pic_data  			equ 0000h
       00000001            B     5    port_pic_ctrl			equ 0001h
       00000001            B     6    port_hw_flags			equ 0001h
       00000002            B     7    port_sdc_ctrl			equ 0002h	; this is a
       00000002            B     8    port_keyboard_data		equ 0002h
       00000003            B     9    port_sdc_data		 	equ 0003h	
       00000004            B    10    port_memory_paging		equ 0004h
       00000005            B    11    port_irq_ctrl			equ 0005h
       00000006            B    12    port_nmi_ack			equ 0006h
       00000007            B    13    port_selector			equ 0007h
                           B    14    
                           B    15    
       00000040            B    16    port_video_mode			equ 040h
                           B    17    
                           B    18    
       00000000            B    19    sdc_power				equ 0		;(port_sd_c
       00000001            B    20    sdc_cs					equ 1		;(port_sd_c
       00000002            B    21    sdc_speed				equ 2 		;(port_sd_c
                           B    22    
       00000004            B    23    sdc_serializer_busy		equ 4 		;(port_hw_f
       00000005            B    24    vrt						equ 5		;(port_hw_f
                           B    25    
                           B    26    
                           B    27    ;-- Memory locations --------------------------
                           B    28    
       00800000            B    29    hw_vram_a			equ 0800000h
       00F00000            B    30    hw_palette			equ 0f00000h
       00F80000            B    31    hw_audio_registers 	equ 0f80000h
                           B    32    
                           B    33    ;----------------------------------------------
                           B    34    
                           B    35    
       00000A00            B    36    os_start 	equ 0a00h
                           B    37    
       00000A14            B    38    prose_return equ os_start+14h
       00000A20            B    39    prose_kernal equ os_start+20h
                           B    40    
                           B    41    ;----------------------------------------------
Zilog eZ80 Macro Assembler Version 4.1 (10060805)02-Feb-11     16:18:35     page:   2


PC     Object              I  Line    Source ..\..\includes\PROSE_header.asm
                           B    42    ; Kernal Jump Table values for mode PROSE
                           B    43    ;----------------------------------------------
                           B    44    		
       00000000            B    45    kr_mount_volumes				equ 00h	
       00000001            B    46    kr_get_device_info				equ 01h	
       00000002            B    47    kr_check_volume_format			equ 02h	
       00000003            B    48    kr_change_volume				equ 03h	
       00000004            B    49    kr_get_volume_info				equ 04h	
       00000005            B    50    kr_format_device				equ 05h	
       00000006            B    51    kr_make_dir						equ 06h
                           B    52    
       00000007            B    53    kr_change_dir					equ 07h	
       00000008            B    54    kr_parent_dir					equ 08h	
       00000009            B    55    kr_root_dir						equ 09h
       0000000A            B    56    kr_delete_dir					equ 0ah
       0000000B            B    57    kr_find_file					equ 0bh
       0000000C            B    58    kr_set_file_pointer				equ 0ch
       0000000D            B    59    kr_set_load_length				equ 0dh
       0000000E            B    60    kr_read_file					equ 0eh
                           B    61    
       0000000F            B    62    kr_erase_file					equ 0fh
       00000010            B    63    kr_rename_file					equ 10h
       00000011            B    64    kr_create_file					equ 11h
       00000012            B    65    kr_write_file					equ 12h
       00000013            B    66    kr_get_total_sectors			equ 13h
       00000014            B    67    kr_dir_list_first_entry			equ 14h
       00000015            B    68    kr_dir_list_get_entry			equ 15h
       00000016            B    69    kr_dir_list_next_entry			equ 16h
                           B    70    
       00000017            B    71    kr_read_sector					equ 17h
       00000018            B    72    kr_write_sector					equ 18h
       00000019            B    73    kr_file_sector_list				equ 19h
       0000001A            B    74    kr_get_dir_cluster				equ 1ah
       0000001B            B    75    kr_set_dir_cluster				equ 1bh
       0000001C            B    76    kr_get_dir_name					equ 1ch
       0000001D            B    77    kr_wait_key						equ 1dh
       0000001E            B    78    kr_get_key						equ 1eh
                           B    79    
       0000001F            B    80    kr_get_key_mod_flags			equ 1fh
       00000020            B    81    kr_serial_receive_header		equ 20h
       00000021            B    82    kr_serial_receive_file			equ 21h
       00000022            B    83    kr_serial_send_file				equ 22h
       00000023            B    84    kr_serial_tx_byte				equ 23h
       00000024            B    85    kr_serial_rx_byte				equ 24h
                           B    86    
       00000025            B    87    kr_print_string					equ 25h
       00000026            B    88    kr_clear_screen					equ 26h
       00000027            B    89    kr_wait_vrt						equ 27h
       00000028            B    90    kr_set_cursor_position			equ 28h
       00000029            B    91    kr_plot_char					equ 29h
       0000002A            B    92    kr_set_pen						equ 2ah
       0000002B            B    93    kr_background_colours			equ 2bh
Zilog eZ80 Macro Assembler Version 4.1 (10060805)02-Feb-11     16:18:35     page:   3


PC     Object              I  Line    Source ..\..\includes\PROSE_header.asm
       0000002C            B    94    kr_draw_cursor					equ 2ch
       0000002D            B    95    kr_get_pen						equ 2dh
       0000002E            B    96    kr_scroll_up					equ 2eh
       0000002F            B    97    kr_os_display					equ 2fh
       00000030            B    98    kr_get_display_size				equ 30h
       00000031            B    99    kr_get_charmap_addr_xy			equ 31h
       00000032            B   100    kr_get_cursor_position			equ 32h
                           B   101    
       00000033            B   102    kr_set_envar					equ 33h
       00000034            B   103    kr_get_envar					equ 34h
       00000035            B   104    kr_delete_envar					equ 35h
                           B   105    
       00000036            B   106    kr_enable_mouse					equ 36h
       00000037            B   107    kr_get_mouse_position			equ 37h
       00000038            B   108    kr_get_mouse_disp				equ 38h
                           B   109    
       00000039            B   110    kr_time_delay					equ 39h
       0000003A            B   111    kr_compare_strings				equ 3ah
       0000003B            B   112    kr_hex_byte_to_ascii			equ 3bh
       0000003C            B   113    kr_ascii_to_hex_word			equ 3ch
       0000003D            B   114    kr_get_string					equ 3dh
                           B   115    
       0000003E            B   116    kr_get_version					equ 3eh
       0000003F            B   117    kr_dont_store_registers			equ 3fh
       00000040            B   118    kr_os_video_settings			equ 40h
       00000041            B   119    kr_read_rtc						equ 41h
       00000042            B   120    kr_write_rtc					equ 42h
                           B   121    
                           B   122    ;----------------------------------------------
                           B   123    ; Standard PROSE executable header
                           B   124    ;----------------------------------------------
                           B   125    
                           B   126    
                           B   127    	IF ADL_mode = 0
000000                     B   128    		org load_location&0ffffh	; if Z80 mo
                           B   129    	ELSE
                           B   130    		org load_location			; otherwise
                           B   131    	ENDIF
                           B   132    	
                           B   133    		.assume ADL = 1				; All PROSE
                           B   134    
000000 18 0E               B   135    		jr skip_header				; $0 - Jump
000002 50524F              B   136    		db 'PRO'					; $2 - ASCI
000005 000001              B   137    mb_loc	dw24 load_location			; $5 - Desi
000008 000000              B   138    		dw24 0						; $8 - If >
00000B 0000                B   139    		dw 0						; $B - If >
00000D 0000                B   140    		dw 0						; $D - If >
00000F 00                  B   141    		db ADL_mode					; $F - Z80 
                           B   142    
000010                     B   143    skip_header
                           B   144    	
                           B   145    	IF ADL_mode = 0 
Zilog eZ80 Macro Assembler Version 4.1 (10060805)02-Feb-11     16:18:35     page:   4


PC     Object              I  Line    Source ..\..\includes\PROSE_header.asm
                           B   146    		
       00010000            B   147    mbase_offset equ load_location & 0ff0000h
                           B   148    
000010 3E01                B   149    		ld a,load_location/65536	; Additiona
000012 ED6D                B   150    		ld MB,a						; Set MBASE
000014 40C3 18 00          B   151    		jp.sis go_z80_mode			; switches 
                           B   152    
000018                     B   153    go_z80_mode
                           B   154    
                           B   155    		.assume ADL = 0
                           B   156    
                           B   157    	ENDIF
                           B   158    	
                           B   159    ;----------------------------------------------
                           B   160    	
                           A    12    
                           A    13    ;----------------------------------------------
                           A    14    ; Z80-mode user program follows..
                           A    15    ;----------------------------------------------
                           A    16    
                           B     0    include "ez80_cpu_equates.asm"
                           B     1    ;--- EZ80 Internal Ports ----------------------
                           B     2    
       0000009A            B     3    PB_DR			equ 09ah
       0000009B            B     4    PB_DDR			equ 09bh
       0000009C            B     5    PB_ALT1			equ 09ch
       0000009D            B     6    PB_ALT2			equ 09dh
                           B     7    
       0000009E            B     8    PC_DR			equ 09eh
       0000009F            B     9    PC_DDR			equ 09fh
       000000A0            B    10    PC_ALT1			equ 0a0h
       000000A1            B    11    PC_ALT2			equ 0a1h
                           B    12    
       000000A2            B    13    PD_DR			equ 0a2h
       000000A3            B    14    PD_DDR			equ 0a3h
       000000A4            B    15    PD_ALT1			equ 0a4h
       000000A5            B    16    PD_ALT2			equ 0a5h
                           B    17    
       000000C0            B    18    UART0_RBR		equ 0c0h
       000000C0            B    19    UART0_THR		equ 0c0h
       000000C0            B    20    UART0_BRG_L		equ 0c0h
       000000C1            B    21    UART0_BRG_H		equ 0c1h
       000000C1            B    22    UART0_IER		equ 0c1h
       000000C2            B    23    UART0_FCTL		equ 0c2h
       000000C3            B    24    UART0_LCTL		equ 0c3h
       000000C4            B    25    UART0_MCTL		equ 0c4h
       000000C5            B    26    UART0_LSR		equ 0c5h
                           B    27    
       000000A8            B    28    CS0_LBR			equ 0a8h			;eZ80 wait 
       000000A9            B    29    CS0_UBR			equ 0a9h
       000000AA            B    30    CS0_CTL			equ 0aah			
       000000AB            B    31    CS1_LBR			equ 0abh			;eZ80 wait 
Zilog eZ80 Macro Assembler Version 4.1 (10060805)02-Feb-11     16:18:35     page:   5


PC     Object              I  Line    Source ..\..\includes\ez80_cpu_equates.asm
       000000AC            B    32    CS1_UBR			equ 0ach
       000000AD            B    33    CS1_CTL			equ 0adh
       000000AE            B    34    CS2_LBR			equ 0aeh			;eZ80 wait 
       000000AF            B    35    CS2_UBR			equ 0afh
       000000B0            B    36    CS2_CTL			equ 0b0h
       000000B1            B    37    CS3_LBR			equ 0b1h			;eZ80 wait 
       000000B2            B    38    CS3_UBR			equ 0b2h
       000000B3            B    39    CS3_CTL			equ 0b3h
                           B    40    
       00000080            B    41    TMR0_CTL		equ 080h			;timer 0 eq
       00000081            B    42    TMR0_DR_L		equ 081h
       00000081            B    43    TMR0_RR_L		equ 081h
       00000082            B    44    TMR0_DR_H		equ 082h
       00000082            B    45    TMR0_RR_H		equ 082h
       00000092            B    46    TMR_ISS			equ 092h
                           B    47    
       000000ED            B    48    RTC_CTRL		equ 0edh			;RTC equate
       000000EC            B    49    RTC_ACTRL		equ 0ech
       000000E0            B    50    RTC_SEC			equ 0e0h
       000000E1            B    51    RTC_MIN			equ 0e1h
       000000E2            B    52    RTC_HRS			equ 0e2h
       000000E3            B    53    RTC_DOW			equ 0e3h
       000000E4            B    54    RTC_DOM			equ 0e4h
       000000E5            B    55    RTC_MON			equ 0e5h
       000000E6            B    56    RTC_YR			equ 0e6h
       000000E7            B    57    RTC_CEN			equ 0e7h
                           B    58    
                           B    59    ;----------------------------------------------
                           A    18    
000018 CD 86 00            A    19    			call init_tracker
                           A    20    
00001B 21 69 00            A    21    			ld hl,message_txt					00001E CD 59 00            A    22    			call print_string
                           A    23    			
                           A    24    ;----------------------------------------------
                           A    25    
000021 ED3801              A    26    wll			in0 a,(port_hw_flags)				000024 CB6F                A    27    			bit 5,a
000026 28 F9               A    28    			jr z,wll
000028 ED3801              A    29    wfl			in0 a,(port_hw_flags)
00002B CB6F                A    30    			bit 5,a
00002D 20 F9               A    31    			jr nz,wfl
                           A    32    
00002F 018813              A    33    			ld bc,5000
000032 0B                  A    34    wlp1		dec bc
000033 78                  A    35    			ld a,b
000034 B1                  A    36    			or c
000035 20 FB               A    37    			jr nz,wlp1
                           A    38    			
000037 CD 52 00            A    39    			call do_tracker_update			
                           A    40    		
00003A 3E1E                A    41    			ld a,kr_get_key						Zilog eZ80 Macro Assembler Version 4.1 (10060805)02-Feb-11     16:18:35     page:   6


PC     Object              I  Line    Source E:\MY_OWN~1\Coding\EZ80PR~1\Code\PROSEA~1\PROTRA~3\src\main_play60hz.asm
00003C 5BCD200A 00         A    42    			call.lil prose_kernal
000041 FE76                A    43    			cp 076h
000043 20 DC               A    44    			jr nz,wll
                           A    45    
000045 3E00                A    46    			ld a,0
000047 5B320300 F8         A    47    			ld.lil (hw_audio_registers+3),a		00004C AF                  A    48    			xor a
00004D 5BC3140A 00         A    49    			jp.lil prose_return					                           A    50    
                           A    51    ;----------------------------------------------
                           A    52    
000052                     A    53    do_tracker_update
                           A    54    
                           A    55    ; call this routine every 50 Hz
                           A    56    
                           A    57    ;			ld a,08h							                           A    58    ;			ld.lil (hw_palette+1),a				                           A    59    			
000052 CD 01 01            A    60    			call play_tracker					                           A    61    			
                           A    62    ;			ld a,00h							                           A    63    ;			ld.lil (hw_palette+1),a				                           A    64    			
000055 CD 54 11            A    65    			call update_audio_hardware			000058 C9                  A    66    			ret
                           A    67    			
                           A    68    ;----------------------------------------------
                           A    69    
000059                     A    70    print_string
                           A    71    
000059 3E25                A    72    			ld a,kr_print_string			 
00005B 5BCD200A 00         A    73    			call.lil prose_kernal			 
000060 C9                  A    74    			ret
                           A    75    
                           A    76    
000061 3E1D                A    77    waitkey		ld a,kr_wait_key
000063 5BCD200A 00         A    78    			call.lil prose_kernal
000068 C9                  A    79    			ret
                           A    80    
                           A    81    
                           A    82    ;----------------------------------------------
                           A    83    		
000069                     A    84    message_txt
                           A    85    
000069 496E6974 69616C69   A    86    			db 'Initialized song. Playing..',11
000071 7A656420 736F6E67 
000079 2E20506C 6179696E 
000081 672E2E0B 00 
                           A    87    
                           A    88    ;----------------------------------------------
                           A    89    		
                           B     0    			include "50Hz_Z80_Protracker_Player
Zilog eZ80 Macro Assembler Version 4.1 (10060805)02-Feb-11     16:18:35     page:   7


PC     Object              I  Line    Source E:\MY_OWN~1\Coding\EZ80PR~1\Code\PROSEA~1\PROTRA~3\src\50Hz_Z80_Protracker_Player_v505.asm
                           B     1    ;----------------------------------------------
                           B     2    ; Z80 Protracker Music Player - V5.05
                           B     3    ; By Phil Ruston 2011
                           B     4    ; http://www.retroleum.co.uk
                           B     5    ;
                           B     6    ; SYNTAX CONVERTED TO ZDSII STANDARD (Z80 mode,
                           B     7    ; NOT OPTIMIZED AT ALL 
                           B     8    ;----------------------------------------------
                           B     9    ;
                           B    10    ;
                           B    11    ; Z80 Code to play standard 31 instrument Protr
                           B    12    ;
                           B    13    ; The code has been designed so that is hardwar
                           B    14    ; does not write to any hardware registers. It 
                           B    15    ; Amiga hardware registers but still uses the A
                           B    16    ; to them. Therefore it is up to a seperate "up
                           B    17    ; variables and adapt/convert the values therei
                           B    18    ; output the sound. (A routine to do this for m
                           B    19    ;
                           B    20    ;
                           B    21    ; Equates (must be defined in external code)
                           B    22    ; -------
                           B    23    ;
                           B    24    ; "music_module" = location of protracker modul
                           B    25    ; at a word address boundary.
                           B    26    ;
                           B    27    ;
                           B    28    ; Routines:
                           B    29    ; ---------
                           B    30    ;
                           B    31    ; call "init_tracker" to initialize/reset tune
                           B    32    ; call "play_tracker" every frame to update the
                           B    33    ;
                           B    34    ; (Obviously you need a routine to read the Ami
                           B    35    ; that this code updates,  convert the values a
                           B    36    ;
                           B    37    ;
                           B    38    ; Variables:
                           B    39    ; ----------
                           B    40    ;
                           B    41    ; "force_sample_base" (WORD) - write the WORD l
                           B    42    ; (ie: not Z80 address space) here  prior to in
                           B    43    ; been seperated from the module (eg: written t
                           B    44    ; ignore it (or write $FFFF).
                           B    45    ;
                           B    46    ; "filter_on_off" (BYTE) reads ONE if player ha
                           B    47    ; zero if not. (Whether or not this is of any u
                           B    48    ;
                           B    49    ; Replacing the Amiga hardware registers is a b
                           B    50    ; These begin at "channel_data". There are 33 b
                           B    51    ; within each block are:
                           B    52    ;
Zilog eZ80 Macro Assembler Version 4.1 (10060805)02-Feb-11     16:18:35     page:   8


PC     Object              I  Line    Source E:\MY_OWN~1\Coding\EZ80PR~1\Code\PROSEA~1\PROTRA~3\src\50Hz_Z80_Protracker_Player_v505.asm
                           B    53    ; samp_loc_lo (WORD address **)	
                           B    54    ; samp_loc_hi (WORD address **)	
                           B    55    ; samp_len_lo 	
                           B    56    ; samp_len_hi 	
                           B    57    ; samp_loop_offset_lo (IN WORDS **)
                           B    58    ; samp_loop_offset_hi (IN WORDS **)	
                           B    59    ; samp_loop_len_lo	
                           B    60    ; samp_loop_len_hi	
                           B    61    ; samp_offset_lo	
                           B    62    ; samp_offset_hi	
                           B    63    ; period_lo
                           B    64    ; period_hi
                           B    65    ; volume
                           B    66    ; control_bits
                           B    67    ;
                           B    68    ; Variable names should be self-explanitory.
                           B    69    ; "control_bits" replaces the Amiga's DMA sound
                           B    70    ; When bit 0 of each channel's control_bits var
                           B    71    ; hardware conversion routine knows to trigger 
                           B    72    ; loopstart/looplength). The conversion routine
                           B    73    ; after triggering a sample.
                           B    74    ;
                           B    75    ; ** These are WORD locations, the Amiga hardwa
                           B    76    ; samples to begin on odd-byte addresses. There
                           B    77    ; to address word locations allows a sample add
                           B    78    ; of 64KB. This is relevent - despite the Z80's
                           B    79    ; hardware may have its own sample RAM . Simply
                           B    80    ; byte addresses.
                           B    81    ;
                           B    82    ; Limitations:
                           B    83    ; ------------
                           B    84    ; The Z80's 64KB address space limits the size 
                           B    85    ; played. However, as mentioned, the samples ca
                           B    86    ; and loaded into seperate dedicated Audio RAM 
                           B    87    ;
                           B    88    ; Revisions:
                           B    89    ; ----------
                           B    90    ;
                           B    91    ; V5.05 - If a pattern note entry is blank, cle
                           B    92    ;
                           B    93    ; V5.04 - Fixed note triggering -  a bug in the
                           B    94    ;         was masking the incorrect retrigging 
                           B    95    ;         period is specified)
                           B    96    ; 
                           B    97    ; Known issues:
                           B    98    ; -------------
                           B    99    ; $EF - invert loop is not implemented (rarely 
                           B   100    ;
                           B   101    ;
                           B   102    ;==============================================
                           B   103    ; Start of hardware-agnostic specific Z80 Protr
                           B   104    ;==============================================
Zilog eZ80 Macro Assembler Version 4.1 (10060805)02-Feb-11     16:18:35     page:   9


PC     Object              I  Line    Source E:\MY_OWN~1\Coding\EZ80PR~1\Code\PROSEA~1\PROTRA~3\src\50Hz_Z80_Protracker_Player_v505.asm
                           B   105    
                           B   106    .assume ADL = 0
                           B   107    
000086                     B   108    init_tracker
                           B   109    
000086 3E06                B   110    				ld a,6						; d
000088 32 C9 10            B   111    				ld (songspeed),a
00008B AF                  B   112    				xor a						; c
00008C 32 C6 10            B   113    				ld (ticker),a
00008F 32 C7 10            B   114    				ld (songpos),a
000092 32 C8 10            B   115    				ld (patindex),a
000095 32 CA 10            B   116    				ld (arpeggio_counter),a
000098 32 CB 10            B   117    				ld (pattloop_pos),a
00009B 32 CC 10            B   118    				ld (pattloop_count),a
00009E 32 CD 10            B   119    				ld (pattdelay_count),a	
0000A1 32 CE 10            B   120    				ld (pattdelay_flag),a	
0000A4 21 D0 10            B   121    				ld hl,channel_data
0000A7 06 84               B   122    				ld b,vars_per_channel*4
0000A9 77                  B   123    clchdlp			ld (hl),a
0000AA 23                  B   124    				inc hl
0000AB 10 FC               B   125    				djnz clchdlp
                           B   126    
0000AD 21 60 1D            B   127    				ld hl,music_module+952		; f
0000B0 0680                B   128    				ld b,128					; t
0000B2 0E00                B   129    				ld c,0
0000B4 7E                  B   130    ptfhplp			ld a,(hl)	
0000B5 B9                  B   131    				cp c
0000B6 38 01               B   132    				jr c,patlower
0000B8 4F                  B   133    				ld c,a
0000B9 23                  B   134    patlower		inc hl
0000BA 10 F8               B   135    				djnz ptfhplp
0000BC 0C                  B   136    				inc c
0000BD CB21                B   137    				sla c
0000BF CB21                B   138    				sla c
0000C1 61                  B   139    				ld h,c
0000C2 2E00                B   140    				ld l,0
0000C4 01 E4 1D            B   141    				ld bc,music_module+1084			0000C7 09                  B   142    				add hl,bc						0000C8 CB3C                B   143    				srl h							0000CA CB1D                B   144    				rr l							0000CC 22 84 10            B   145    				ld (sample_base),hl
                           B   146    
0000CF ED5B 86 10          B   147    				ld de,(force_sample_base)		0000D3 13                  B   148    				inc de							0000D4 7A                  B   149    				ld a,d							0000D5 B3                  B   150    				or e
0000D6 28 03               B   151    				jr z,usenormsb
0000D8 2A 86 10            B   152    				ld hl,(force_sample_base)	
                           B   153    
0000DB DD21 88 10          B   154    usenormsb		ld ix,sample_location_list		0000DF FD21 D2 19          B   155    				ld iy,music_module+42
0000E3 061F                B   156    				ld b,31
Zilog eZ80 Macro Assembler Version 4.1 (10060805)02-Feb-11     16:18:35     page:  10


PC     Object              I  Line    Source E:\MY_OWN~1\Coding\EZ80PR~1\Code\PROSEA~1\PROTRA~3\src\50Hz_Z80_Protracker_Player_v505.asm
0000E5 DD7500              B   157    bsstlp			ld (ix),l						0000E8 DD7401              B   158    				ld (ix+1),h						0000EB DD23                B   159    				inc ix
0000ED DD23                B   160    				inc ix
0000EF FD7E01              B   161    				ld a,(iy+1)						0000F2 85                  B   162    				add a,l							0000F3 6F                  B   163    				ld l,a
0000F4 FD7E00              B   164    				ld a,(iy)						0000F7 8C                  B   165    				adc a,h							0000F8 67                  B   166    				ld h,a	
0000F9 111E00              B   167    				ld de,30			
0000FC FD19                B   168    				add iy,de						0000FE 10 E5               B   169    				djnz bsstlp
000100 C9                  B   170    				ret
                           B   171    
                           B   172    ;----------------------------------------------
                           B   173    
000101                     B   174    play_tracker
                           B   175    
000101 3A C6 10            B   176    				ld a,(ticker)
000104 B7                  B   177    				or a			
000105 C2 AC 02            B   178    				jp nz,not_new_line
                           B   179    
000108 3A C7 10            B   180    				ld a,(songpos)					00010B 0600                B   181    				ld b,0
00010D 4F                  B   182    				ld c,a
00010E 21 60 1D            B   183    				ld hl,music_module+952			000111 09                  B   184    				add hl,bc						000112 46                  B   185    				ld b,(hl)			
000113 0E00                B   186    				ld c,0
000115 CB20                B   187    				sla b
000117 CB20                B   188    				sla b							                           B   189    				
000119 3A C8 10            B   190    				ld a,(patindex)					00011C 61                  B   191    				ld h,c							00011D 6F                  B   192    				ld l,a
00011E 29                  B   193    				add hl,hl
00011F 29                  B   194    				add hl,hl
000120 29                  B   195    				add hl,hl
000121 29                  B   196    				add hl,hl						000122 09                  B   197    				add hl,bc						000123 EB                  B   198    				ex de,hl
                           B   199    				
000124 FD21 D0 10          B   200    				ld iy,channel_data	
000128 DD21 E4 1D          B   201    				ld ix,music_module+1084			00012C DD19                B   202    				add ix,de						00012E 0604                B   203    				ld b,4							000130 C5                  B   204    chan_loop		push bc
000131 DD7E00              B   205    				ld a,(ix)						000134 DDB601              B   206    				or (ix+1)
000137 DDB602              B   207    				or (ix+2)
00013A DDB603              B   208    				or (ix+3)
Zilog eZ80 Macro Assembler Version 4.1 (10060805)02-Feb-11     16:18:35     page:  11


PC     Object              I  Line    Source E:\MY_OWN~1\Coding\EZ80PR~1\Code\PROSEA~1\PROTRA~3\src\50Hz_Z80_Protracker_Player_v505.asm
00013D 20 06               B   209    				jr nz,parse_dat
00013F FD36 04 FF          B   210    				ld (iy+fx_number),0ffh			000143 18 03               B   211    				jr skipchan	
000145 CD 58 01            B   212    parse_dat		call new_note_data	
000148 01 21 00            B   213    skipchan		ld bc,vars_per_channel		
00014B FD09                B   214    				add iy,bc						00014D 010400              B   215    				ld bc,4
000150 DD09                B   216    				add ix,bc						000152 C1                  B   217    				pop bc
000153 10 DB               B   218    				djnz chan_loop
000155 C3 BE 02            B   219    				jp tick_advance
                           B   220    
                           B   221    
                           B   222    ;----- New note routines ----------------------
                           B   223    
000158                     B   224    new_note_data
                           B   225    				
000158 FD36 12 00          B   226    				ld (iy+instrument_waiting),0
00015C DD7E00              B   227    				ld a,(ix)						00015F E6F0                B   228    				and 0f0h
000161 DD4602              B   229    				ld b,(ix+2)
000164 CB38                B   230    				srl b
000166 CB38                B   231    				srl b
000168 CB38                B   232    				srl b
00016A CB38                B   233    				srl b
00016C B0                  B   234    				or b			
00016D 28 54               B   235    				jr z,no_new_instrument			                           B   236    
00016F FD77 12             B   237    				ld (iy+instrument_waiting),a
000172 3D                  B   238    				dec a
000173 CB27                B   239    				sla a
000175 4F                  B   240    				ld c,a
000176 0600                B   241    				ld b,0
000178 21 88 10            B   242    				ld hl,sample_location_list		00017B 09                  B   243    				add hl,bc
00017C 7E                  B   244    				ld a,(hl)
00017D FD77 17             B   245    				ld (iy+samp_loc_lo),a			000180 23                  B   246    				inc hl
000181 7E                  B   247    				ld a,(hl)
000182 FD77 18             B   248    				ld (iy+samp_loc_hi),a			                           B   249    				
000185 21 44 10            B   250    				ld hl,multiply_30_table			000188 09                  B   251    				add hl,bc
000189 7E                  B   252    				ld a,(hl)
00018A 23                  B   253    				inc hl
00018B 66                  B   254    				ld h,(hl)
00018C 6F                  B   255    				ld l,a
00018D 01 D2 19            B   256    				ld bc,music_module+42	
000190 09                  B   257    				add hl,bc						000191 7E                  B   258    				ld a,(hl)
000192 FD77 1A             B   259    				ld (iy+samp_len_hi),a			000195 23                  B   260    				inc hl
Zilog eZ80 Macro Assembler Version 4.1 (10060805)02-Feb-11     16:18:35     page:  12


PC     Object              I  Line    Source E:\MY_OWN~1\Coding\EZ80PR~1\Code\PROSEA~1\PROTRA~3\src\50Hz_Z80_Protracker_Player_v505.asm
000196 7E                  B   261    				ld a,(hl)
000197 FD77 19             B   262    				ld (iy+samp_len_lo),a			00019A 23                  B   263    				inc hl	
00019B 7E                  B   264    				ld a,(hl)			
00019C E60F                B   265    				and 0fh
00019E FD77 14             B   266    				ld (iy+finetune),a				0001A1 23                  B   267    				inc hl
0001A2 7E                  B   268    				ld a,(hl)
0001A3 FD77 13             B   269    				ld (iy+volume_waiting),a		0001A6 23                  B   270    				inc hl
0001A7 46                  B   271    				ld b,(hl)						0001A8 23                  B   272    				inc hl
0001A9 4E                  B   273    				ld c,(hl)						0001AA E5                  B   274    				push hl
0001AB FD66 18             B   275    				ld h,(iy+samp_loc_hi)
0001AE FD6E 17             B   276    				ld l,(iy+samp_loc_lo)
0001B1 09                  B   277    				add hl,bc
0001B2 FD74 1C             B   278    				ld (iy+samp_loop_loc_hi),h		0001B5 FD75 1B             B   279    				ld (iy+samp_loop_loc_lo),l		0001B8 E1                  B   280    				pop hl	
0001B9 23                  B   281    				inc hl
0001BA 7E                  B   282    				ld a,(hl)
0001BB FD77 1E             B   283    				ld (iy+samp_loop_len_hi),a		0001BE 23                  B   284    				inc hl
0001BF 7E                  B   285    				ld a,(hl)
0001C0 FD77 1D             B   286    				ld (iy+samp_loop_len_lo),a		                           B   287    				
                           B   288    				
                           B   289    				
0001C3                     B   290    no_new_instrument	
                           B   291    
0001C3 DD7E00              B   292    				ld a,(ix)						0001C6 E60F                B   293    				and 0fh
0001C8 47                  B   294    				ld b,a
0001C9 DD4E01              B   295    				ld c,(ix+1)						                           B   296    					
0001CC DD7E03              B   297    				ld a,(ix+3)						0001CF FD77 05             B   298    				ld (iy+fx_args),a				0001D2 DD7E02              B   299    				ld a,(ix+2)						0001D5 E60F                B   300    				and 0fh							0001D7 FD77 04             B   301    				ld (iy+fx_number),a
                           B   302    
0001DA FE03                B   303    				cp 3							0001DC CA 62 02            B   304    				jp z,set_portadest				0001DF FE05                B   305    				cp 5 			
0001E1 28 7F               B   306    				jr z,set_portadest
                           B   307    
0001E3 FE0E                B   308    				cp 0eh							0001E5 20 11               B   309    				jr nz,no_ftoveride
0001E7 FD7E 05             B   310    				ld a,(iy+fx_args)
0001EA E6F0                B   311    				and 0f0h
0001EC FE50                B   312    				cp 050h
Zilog eZ80 Macro Assembler Version 4.1 (10060805)02-Feb-11     16:18:35     page:  13


PC     Object              I  Line    Source E:\MY_OWN~1\Coding\EZ80PR~1\Code\PROSEA~1\PROTRA~3\src\50Hz_Z80_Protracker_Player_v505.asm
0001EE 20 08               B   313    				jr nz,no_ftoveride
0001F0 FD7E 05             B   314    				ld a,(iy+fx_args)
0001F3 E60F                B   315    				and 0fh
0001F5 FD77 14             B   316    				ld (iy+finetune),a				                           B   317    
0001F8                     B   318    no_ftoveride
                           B   319    
0001F8 FDCB 0F 9E          B   320    				res 3,(iy+control_bits)			0001FC 78                  B   321    				ld a,b							0001FD B1                  B   322    				or c							0001FE 28 15               B   323    				jr z,nonewp1
                           B   324    
000200 FDCB 0F DE          B   325    				set 3,(iy+control_bits)			000204 C5                  B   326    				push bc
000205 FD71 15             B   327    				ld (iy+arp_base_period_lo),c	000208 FD70 16             B   328    				ld (iy+arp_base_period_hi),b	00020B CD 8A 02            B   329    				call finetune_bc_period
00020E FD71 06             B   330    				ld (iy+period_for_fx_lo),c		000211 FD70 07             B   331    				ld (iy+period_for_fx_hi),b
000214 C1                  B   332    				pop bc
                           B   333    				
000215 FD7E 04             B   334    nonewp1			ld a,(iy+fx_number)
000218 FE0E                B   335    				cp 0eh							00021A 20 0A               B   336    				jr nz,not_ed		 
00021C FD7E 05             B   337    				ld a,(iy+fx_args)
00021F E6F0                B   338    				and 0f0h
000221 FED0                B   339    				cp 0d0h
000223 CA 39 03            B   340    				jp z,check_more_fx
                           B   341    				
000226 78                  B   342    not_ed			ld a,b							000227 B1                  B   343    				or c			
000228 28 19               B   344    				jr z,nonewp2
00022A FD4E 06             B   345    				ld c,(iy+period_for_fx_lo)		00022D FD46 07             B   346    				ld b,(iy+period_for_fx_hi)
000230 FD71 01             B   347    				ld (iy+period_lo),c
000233 FD70 02             B   348    				ld (iy+period_hi),b
000236 FDCB 0F C6          B   349    				set 0,(iy+control_bits)			00023A FD7E 12             B   350    				ld a,(iy+instrument_waiting)	00023D B7                  B   351    				or a
00023E CA 39 03            B   352    				jp z,check_more_fx
000241 18 10               B   353    				jr do_vol						                           B   354    				
000243 FD7E 12             B   355    nonewp2			ld a,(iy+instrument_waiting)	000246 B7                  B   356    				or a							000247 CA 39 03            B   357    				jp z,check_more_fx
00024A FDBE 00             B   358    				cp (iy+instrument)			
00024D 28 04               B   359    				jr z,do_vol
00024F FDCB 0F C6          B   360    				set 0,(iy+control_bits)
                           B   361    
000253 FD77 00             B   362    do_vol			ld (iy+instrument),a
000256 FD7E 13             B   363    				ld a,(iy+volume_waiting)		000259 FD77 03             B   364    				ld (iy+volume),a	
Zilog eZ80 Macro Assembler Version 4.1 (10060805)02-Feb-11     16:18:35     page:  14


PC     Object              I  Line    Source E:\MY_OWN~1\Coding\EZ80PR~1\Code\PROSEA~1\PROTRA~3\src\50Hz_Z80_Protracker_Player_v505.asm
00025C FD77 08             B   365    				ld (iy+volume_for_fx),a			00025F C3 39 03            B   366    				jp check_more_fx
                           B   367    				
                           B   368    
000262                     B   369    set_portadest
                           B   370    
000262 78                  B   371    				ld a,b							000263 B1                  B   372    				or c			
000264 28 09               B   373    				jr z,spd_same			
000266 CD 8A 02            B   374    				call finetune_bc_period
000269 FD71 10             B   375    				ld (iy+portamento_dest_lo),c	00026C FD70 11             B   376    				ld (iy+portamento_dest_hi),b
                           B   377    				
00026F FD7E 12             B   378    spd_same		ld a,(iy+instrument_waiting)	000272 B7                  B   379    				or a			
000273 C8                  B   380    				ret z
000274 FDBE 00             B   381    				cp (iy+instrument)				000277 28 07               B   382    				jr z,skiptrig
000279 FDCB 0F C6          B   383    				set 0,(iy+control_bits)			00027D FD77 00             B   384    				ld (iy+instrument),a
000280 FD7E 13             B   385    skiptrig		ld a,(iy+volume_waiting)
000283 FD77 03             B   386    				ld (iy+volume),a	
000286 FD77 08             B   387    				ld (iy+volume_for_fx),a	
000289 C9                  B   388    				ret
                           B   389    				
                           B   390    
                           B   391    
00028A                     B   392    finetune_bc_period
                           B   393    
00028A FD7E 14             B   394    				ld a,(iy+finetune)				00028D B7                  B   395    				or a
00028E C8                  B   396    				ret z
00028F CB27                B   397    				sla a
000291 21 84 0B            B   398    				ld hl,tuning_table_list	
000294 5F                  B   399    				ld e,a			
000295 1600                B   400    				ld d,0
000297 19                  B   401    				add hl,de
000298 5E                  B   402    				ld e,(hl)
000299 23                  B   403    				inc hl	
00029A 56                  B   404    				ld d,(hl)						00029B 21 23 08            B   405    				ld hl,period_lookup_table-113
00029E 09                  B   406    				add hl,bc
00029F 7E                  B   407    				ld a,(hl)						0002A0 CB27                B   408    				sla a
0002A2 83                  B   409    				add a,e
0002A3 30 01               B   410    				jr nc,ttmok
0002A5 14                  B   411    				inc d
0002A6 5F                  B   412    ttmok			ld e,a			
0002A7 EB                  B   413    				ex de,hl						0002A8 4E                  B   414    				ld c,(hl)
0002A9 23                  B   415    				inc hl
0002AA 46                  B   416    				ld b,(hl)						Zilog eZ80 Macro Assembler Version 4.1 (10060805)02-Feb-11     16:18:35     page:  15


PC     Object              I  Line    Source E:\MY_OWN~1\Coding\EZ80PR~1\Code\PROSEA~1\PROTRA~3\src\50Hz_Z80_Protracker_Player_v505.asm
0002AB C9                  B   417    				ret
                           B   418    				
                           B   419    				
                           B   420    ;-------- "FX during line" routines -----------
                           B   421    
                           B   422    
0002AC                     B   423    not_new_line
                           B   424    
0002AC FD21 D0 10          B   425    				ld iy,channel_data				0002B0 0604                B   426    				ld b,4							0002B2 C5                  B   427    chanfxlp		push bc							0002B3 CD 04 03            B   428    				call check_fx		
0002B6 01 21 00            B   429    				ld bc,vars_per_channel
0002B9 FD09                B   430    				add iy,bc
0002BB C1                  B   431    				pop bc
0002BC 10 F4               B   432    				djnz chanfxlp
                           B   433    				
0002BE                     B   434    tick_advance
                           B   435    
0002BE 21 CA 10            B   436    				ld hl,arpeggio_counter			0002C1 34                  B   437    				inc (hl)
0002C2 7E                  B   438    				ld a,(hl)
0002C3 FE03                B   439    				cp 3
0002C5 20 02               B   440    				jr nz,arp_ok
0002C7 3600                B   441    				ld (hl),0
0002C9 21 C6 10            B   442    arp_ok			ld hl,ticker					0002CC 34                  B   443    				inc (hl)
0002CD 3A C9 10            B   444    				ld a,(songspeed)	
0002D0 BE                  B   445    				cp (hl)							0002D1 20 30               B   446    				jr nz,nspwrap
0002D3 AF                  B   447    				xor a
0002D4 77                  B   448    				ld (hl),a						0002D5 32 CA 10            B   449    				ld (arpeggio_counter),a			0002D8 21 CD 10            B   450    				ld hl,pattdelay_count			0002DB B6                  B   451    				or (hl)
0002DC 28 04               B   452    				jr z,nopatdel
0002DE 35                  B   453    				dec (hl)						0002DF C3 03 03            B   454    				jp nspwrap
0002E2 AF                  B   455    nopatdel		xor a
0002E3 32 CE 10            B   456    				ld (pattdelay_flag),a
0002E6 21 C8 10            B   457    				ld hl,patindex
0002E9 34                  B   458    				inc (hl)						0002EA 7E                  B   459    				ld a,(hl)
0002EB FE40                B   460    				cp 64							0002ED 20 14               B   461    				jr nz,nspwrap
0002EF AF                  B   462    				xor a
0002F0 77                  B   463    				ld (hl),a
0002F1 32 CB 10            B   464    				ld (pattloop_pos),a				0002F4 32 CC 10            B   465    				ld (pattloop_count),a			0002F7 21 C7 10            B   466    				ld hl,songpos		
0002FA 34                  B   467    				inc (hl)						0002FB 3A 5E 1D            B   468    				ld a,(music_module+950)
Zilog eZ80 Macro Assembler Version 4.1 (10060805)02-Feb-11     16:18:35     page:  16


PC     Object              I  Line    Source E:\MY_OWN~1\Coding\EZ80PR~1\Code\PROSEA~1\PROTRA~3\src\50Hz_Z80_Protracker_Player_v505.asm
0002FE BE                  B   469    				cp (hl)							0002FF 20 02               B   470    				jr nz,nspwrap
000301 3600                B   471    				ld (hl),0
000303 C9                  B   472    nspwrap			ret
                           B   473    
                           B   474    
                           B   475    ;----------------------------------------------
                           B   476    				
000304 FD7E 04             B   477    check_fx		ld a,(iy+fx_number)	
000307 B7                  B   478    				or a							000308 CA 5B 03            B   479    				jp z,arpeggio					00030B FE01                B   480    				cp 1
00030D CA A2 03            B   481    				jp z,portamento_up
000310 FE02                B   482    				cp 2
000312 CA CA 03            B   483    				jp z,portamento_down
000315 FE03                B   484    				cp 3
000317 CA F2 03            B   485    				jp z,tone_portamento
00031A FE04                B   486    				cp 4
00031C CA C0 04            B   487    				jp z,vibrato
00031F FE05                B   488    				cp 5
000321 CA 78 05            B   489    				jp z,tone_portamento_volslide
000324 FE06                B   490    				cp 6
000326 CA 7E 05            B   491    				jp z,vibrato_volslide
000329 FE07                B   492    				cp 7
00032B CA 84 05            B   493    				jp z,tremolo
00032E FE0A                B   494    				cp 0ah
000330 CA 82 06            B   495    				jp z,volslide
000333 FE0E                B   496    				cp 0eh
000335 CA EC 06            B   497    				jp z,extended_fx
000338 C9                  B   498    				ret
                           B   499    
                           B   500    
000339                     B   501    check_more_fx
                           B   502    
000339 FD7E 04             B   503    				ld a,(iy+fx_number)				00033C FE09                B   504    				cp 9
00033E CA 3F 06            B   505    				jp z,sample_offset
000341 FE0B                B   506    				cp 0bh			
000343 CA A7 06            B   507    				jp z,position_jump
000346 FE0D                B   508    				cp 0dh
000348 CA C3 06            B   509    				jp z,pattern_break
00034B FE0E                B   510    				cp 0eh
00034D CA EC 06            B   511    				jp z,extended_fx
000350 FE0F                B   512    				cp 0fh
000352 CA 8D 08            B   513    				jp z,set_speed
000355 FE0C                B   514    				cp 0ch
000357 CA B3 06            B   515    				jp z,set_volume
00035A C9                  B   516    				ret
                           B   517    					
                           B   518    
                           B   519    ;------- FX $00 -------------------------------
                           B   520    
Zilog eZ80 Macro Assembler Version 4.1 (10060805)02-Feb-11     16:18:35     page:  17


PC     Object              I  Line    Source E:\MY_OWN~1\Coding\EZ80PR~1\Code\PROSEA~1\PROTRA~3\src\50Hz_Z80_Protracker_Player_v505.asm
00035B FD7E 05             B   521    arpeggio		ld a,(iy+fx_args)				00035E B7                  B   522    				or a
00035F C8                  B   523    				ret z
000360 FD4E 15             B   524    				ld c,(iy+arp_base_period_lo)	000363 FD46 16             B   525    				ld b,(iy+arp_base_period_hi)
000366 3A CA 10            B   526    				ld a,(arpeggio_counter)	
000369 1E00                B   527    				ld e,0
00036B B7                  B   528    				or a	
00036C 28 17               B   529    				jr z,doarp		
00036E FE02                B   530    				cp 2
000370 28 0D               B   531    				jr z,arptwo
000372 FD5E 05             B   532    arpone			ld e,(iy+fx_args)
000375 CB3B                B   533    				srl e
000377 CB3B                B   534    				srl e
000379 CB3B                B   535    				srl e
00037B CB3B                B   536    				srl e							00037D 18 06               B   537    				jr doarp
00037F FD7E 05             B   538    arptwo			ld a,(iy+fx_args)
000382 E60F                B   539    				and 15
000384 5F                  B   540    				ld e,a							000385 21 23 08            B   541    doarp			ld hl,period_lookup_table-113
000388 09                  B   542    				add hl,bc
000389 7E                  B   543    				ld a,(hl)						00038A 83                  B   544    				add a,e							00038B CB27                B   545    				sla a
00038D 21 A4 0B            B   546    				ld hl,period_table_p0
000390 85                  B   547    				add a,l
000391 30 01               B   548    				jr nc,alumok
000393 24                  B   549    				inc h
000394 6F                  B   550    alumok			ld l,a
000395 4E                  B   551    				ld c,(hl)
000396 23                  B   552    				inc hl
000397 46                  B   553    				ld b,(hl)
000398 CD 8A 02            B   554    				call finetune_bc_period
00039B FD71 01             B   555    				ld (iy+period_lo),c
00039E FD70 02             B   556    				ld (iy+period_hi),b
0003A1 C9                  B   557    				ret
                           B   558    
                           B   559    
                           B   560    ;-------- FX $01 ------------------------------
                           B   561    
0003A2                     B   562    portamento_up
                           B   563    
0003A2 0600                B   564    				ld b,0							0003A4 FD4E 05             B   565    				ld c,(iy+fx_args)				0003A7 FD6E 06             B   566    				ld l,(iy+period_for_fx_lo)
0003AA FD66 07             B   567    				ld h,(iy+period_for_fx_hi)
0003AD AF                  B   568    				xor a
0003AE ED42                B   569    				sbc hl,bc
0003B0 38 08               B   570    				jr c,portumin
0003B2 B4                  B   571    				or h
0003B3 20 08               B   572    				jr nz,portugnp
Zilog eZ80 Macro Assembler Version 4.1 (10060805)02-Feb-11     16:18:35     page:  18


PC     Object              I  Line    Source E:\MY_OWN~1\Coding\EZ80PR~1\Code\PROSEA~1\PROTRA~3\src\50Hz_Z80_Protracker_Player_v505.asm
0003B5 7D                  B   573    				ld a,l
0003B6 FE71                B   574    				cp 113
0003B8 30 03               B   575    				jr nc,portugnp
0003BA 217100              B   576    portumin		ld hl,113
0003BD FD75 06             B   577    portugnp		ld (iy+period_for_fx_lo),l
0003C0 FD74 07             B   578    				ld (iy+period_for_fx_hi),h
0003C3 FD75 01             B   579    				ld (iy+period_lo),l
0003C6 FD74 02             B   580    				ld (iy+period_hi),h
0003C9 C9                  B   581    				ret
                           B   582    
                           B   583    				
                           B   584    ;--------- FX $02 -----------------------------
                           B   585    
0003CA                     B   586    portamento_down			
                           B   587    
0003CA 0600                B   588    				ld b,0							0003CC FD4E 05             B   589    				ld c,(iy+fx_args)				0003CF FD6E 06             B   590    				ld l,(iy+period_for_fx_lo)
0003D2 FD66 07             B   591    				ld h,(iy+period_for_fx_hi)
0003D5 09                  B   592    				add hl,bc
0003D6 7C                  B   593    				ld a,h
0003D7 FE03                B   594    				cp 3
0003D9 38 0A               B   595    				jr c,portdgnp
0003DB 20 05               B   596    				jr nz,portdmax
0003DD 7D                  B   597    				ld a,l
0003DE FE8B                B   598    				cp 139
0003E0 38 03               B   599    				jr c,portdgnp
0003E2 215803              B   600    portdmax		ld hl,856
0003E5 FD75 06             B   601    portdgnp		ld (iy+period_for_fx_lo),l
0003E8 FD74 07             B   602    				ld (iy+period_for_fx_hi),h
0003EB FD75 01             B   603    				ld (iy+period_lo),l
0003EE FD74 02             B   604    				ld (iy+period_hi),h
0003F1 C9                  B   605    				ret
                           B   606    
                           B   607    
                           B   608    ;--------- FX $03 -----------------------------
                           B   609    
0003F2                     B   610    tone_portamento
                           B   611    
0003F2 FD4E 09             B   612    				ld c,(iy+portamento_rate)		0003F5 FD7E 05             B   613    				ld a,(iy+fx_args)
0003F8 B7                  B   614    				or a
0003F9 28 0B               B   615    				jr z,uexistpr
0003FB 4F                  B   616    				ld c,a
0003FC FD7E 04             B   617    				ld a,(iy+fx_number)
0003FF FE03                B   618    				cp 3							000401 20 03               B   619    				jr nz,uexistpr
000403 FD71 09             B   620    				ld (iy+portamento_rate),c	
000406 FD5E 10             B   621    uexistpr		ld e,(iy+portamento_dest_lo)	000409 FD56 11             B   622    				ld d,(iy+portamento_dest_hi)
00040C FD6E 06             B   623    				ld l,(iy+period_for_fx_lo)		00040F FD66 07             B   624    				ld h,(iy+period_for_fx_hi)
Zilog eZ80 Macro Assembler Version 4.1 (10060805)02-Feb-11     16:18:35     page:  19


PC     Object              I  Line    Source E:\MY_OWN~1\Coding\EZ80PR~1\Code\PROSEA~1\PROTRA~3\src\50Hz_Z80_Protracker_Player_v505.asm
000412 AF                  B   625    				xor a
000413 ED52                B   626    				sbc hl,de						000415 C8                  B   627    				ret z							000416 38 1B               B   628    				jr c,tp_peru					                           B   629    
000418 FD6E 06             B   630    tp_perd			ld l,(iy+period_for_fx_lo)		00041B FD66 07             B   631    				ld h,(iy+period_for_fx_hi)
00041E 0600                B   632    				ld b,0
000420 AF                  B   633    				xor a
000421 ED42                B   634    				sbc hl,bc						000423 30 03               B   635    				jr nc,tp_dnw					000425 210000              B   636    				ld hl,0
000428 4D                  B   637    tp_dnw			ld c,l							000429 44                  B   638    				ld b,h
00042A AF                  B   639    				xor a
00042B ED52                B   640    				sbc hl,de						00042D 30 18               B   641    				jr nc,chk_gliss
00042F 4B                  B   642    				ld c,e
000430 42                  B   643    				ld b,d
000431 18 1A               B   644    				jr tp_end						                           B   645    
000433 FD6E 06             B   646    tp_peru			ld l,(iy+period_for_fx_lo)		000436 FD66 07             B   647    				ld h,(iy+period_for_fx_hi)
000439 0600                B   648    				ld b,0
00043B 09                  B   649    				add hl,bc
00043C 4D                  B   650    				ld c,l							00043D 44                  B   651    				ld b,h
00043E AF                  B   652    				xor a
00043F ED52                B   653    				sbc hl,de		
000441 38 04               B   654    				jr c,chk_gliss
000443 4B                  B   655    				ld c,e							000444 42                  B   656    				ld b,d
000445 18 06               B   657    				jr tp_end	
                           B   658    
000447 FDCB 0F 4E          B   659    chk_gliss		bit 1,(iy+control_bits)			00044B 20 0D               B   660    				jr nz,do_gliss		
                           B   661    				
00044D FD71 06             B   662    tp_end			ld (iy+period_for_fx_lo),c
000450 FD70 07             B   663    				ld (iy+period_for_fx_hi),b
000453 FD71 01             B   664    				ld (iy+period_lo),c	
000456 FD70 02             B   665    				ld (iy+period_hi),b
000459 C9                  B   666    				ret	
                           B   667    				
00045A FD71 06             B   668    do_gliss		ld (iy+period_for_fx_lo),c		00045D FD70 07             B   669    				ld (iy+period_for_fx_hi),b
000460 FD7E 14             B   670    				ld a,(iy+finetune)	
000463 CB27                B   671    				sla a
000465 21 84 0B            B   672    				ld hl,tuning_table_list	
000468 5F                  B   673    				ld e,a			
000469 1600                B   674    				ld d,0
00046B 19                  B   675    				add hl,de
00046C 5E                  B   676    				ld e,(hl)
Zilog eZ80 Macro Assembler Version 4.1 (10060805)02-Feb-11     16:18:35     page:  20


PC     Object              I  Line    Source E:\MY_OWN~1\Coding\EZ80PR~1\Code\PROSEA~1\PROTRA~3\src\50Hz_Z80_Protracker_Player_v505.asm
00046D 23                  B   677    				inc hl	
00046E 56                  B   678    				ld d,(hl)						                           B   679    
00046F DDE5                B   680    				push ix
000471 D5                  B   681    				push de
000472 DDE1                B   682    				pop ix
000474 AF                  B   683    				xor a
000475 110000              B   684    				ld de,0							000478 DD6E16              B   685    				ld l,(ix+22)					00047B DD6617              B   686    				ld h,(ix+23)
00047E ED42                B   687    				sbc hl,bc
000480 28 2B               B   688    				jr z,tp_glend
000482 38 12               B   689    				jr c,gltest
000484 111800              B   690    				ld de,24
000487 DD6E2E              B   691    				ld l,(ix+46)
00048A DD662F              B   692    				ld h,(ix+47)
00048D ED42                B   693    				sbc hl,bc
00048F 28 1C               B   694    				jr z,tp_glend
000491 38 03               B   695    				jr c,gltest
000493 113000              B   696    				ld de,48
                           B   697    
000496 DD19                B   698    gltest			add ix,de
000498 50                  B   699    				ld d,b
000499 59                  B   700    				ld e,c
00049A AF                  B   701    				xor a
00049B 060C                B   702    				ld b,12
00049D DD6E00              B   703    glissfper		ld l,(ix)						0004A0 DD6601              B   704    				ld h,(ix+1)
0004A3 ED52                B   705    				sbc hl,de
0004A5 30 0F               B   706    				jr nc,nggliss
0004A7 DD4E00              B   707    				ld c,(ix)
0004AA DD4601              B   708    				ld b,(ix+1)
0004AD FD71 01             B   709    tp_glend		ld (iy+period_lo),c	
0004B0 FD70 02             B   710    				ld (iy+period_hi),b
0004B3 DDE1                B   711    				pop ix
0004B5 C9                  B   712    				ret
                           B   713    
0004B6 DD23                B   714    nggliss			inc ix
0004B8 DD23                B   715    				inc ix
0004BA 10 E1               B   716    				djnz glissfper
0004BC 42                  B   717    				ld b,d
0004BD 4B                  B   718    				ld c,e
0004BE 18 ED               B   719    				jr tp_glend
                           B   720    
                           B   721    
                           B   722    ;--------- FX $04 -----------------------------
                           B   723    
0004C0 FD46 0A             B   724    vibrato			ld b,(iy+vibrato_args)			0004C3 FD7E 04             B   725    				ld a,(iy+fx_number)
0004C6 FE04                B   726    				cp 4
0004C8 20 1C               B   727    				jr nz,vibrsame					0004CA FD7E 05             B   728    				ld a,(iy+fx_args)
Zilog eZ80 Macro Assembler Version 4.1 (10060805)02-Feb-11     16:18:35     page:  21


PC     Object              I  Line    Source E:\MY_OWN~1\Coding\EZ80PR~1\Code\PROSEA~1\PROTRA~3\src\50Hz_Z80_Protracker_Player_v505.asm
0004CD B7                  B   729    				or a
0004CE 28 16               B   730    				jr z,vibrsame					0004D0 4F                  B   731    				ld c,a
0004D1 E60F                B   732    				and 15
0004D3 28 06               B   733    				jr z,vibdsame					0004D5 57                  B   734    				ld d,a
0004D6 78                  B   735    				ld a,b
0004D7 E6F0                B   736    				and 0f0h
0004D9 B2                  B   737    				or d
0004DA 47                  B   738    				ld b,a							0004DB 79                  B   739    vibdsame		ld a,c
0004DC E6F0                B   740    				and 0f0h
0004DE 28 06               B   741    				jr z,vibrsame					0004E0 4F                  B   742    				ld c,a
0004E1 78                  B   743    				ld a,b
0004E2 E60F                B   744    				and 0fh
0004E4 B1                  B   745    				or c							0004E5 47                  B   746    				ld b,a			
0004E6 FD70 0A             B   747    vibrsame		ld (iy+vibrato_args),b			                           B   748    				
0004E9 FD4E 0B             B   749    				ld c,(iy+vibrato_pos)
0004EC CB39                B   750    				srl c
0004EE CB39                B   751    				srl c
0004F0 79                  B   752    				ld a,c
0004F1 E61F                B   753    				and 1fh
0004F3 4F                  B   754    				ld c,a							0004F4 FD7E 0E             B   755    				ld a,(iy+wave_type)	
0004F7 E60F                B   756    				and 0fh
0004F9 B7                  B   757    				or a							0004FA 28 1D               B   758    				jr z,vib_sine					0004FC CB21                B   759    				sla c		
0004FE CB21                B   760    				sla c
000500 CB21                B   761    				sla c							000502 FE01                B   762    				cp 1
000504 28 04               B   763    				jr z,vib_ramp					000506 1EFF                B   764    				ld e,255			
000508 18 16               B   765    				jr vib_gotd						                           B   766    
00050A FDCB 0B 7E          B   767    vib_ramp		bit 7,(iy+vibrato_pos)			00050E 28 06               B   768    				jr z,vibr2
000510 3EFF                B   769    				ld a,255
000512 91                  B   770    				sub c
000513 5F                  B   771    				ld e,a
000514 18 0A               B   772    				jr vib_gotd
000516 59                  B   773    vibr2			ld e,c
000517 18 07               B   774    				jr vib_gotd
                           B   775    
000519 21 24 10            B   776    vib_sine		ld hl,vibrato_table				00051C 0600                B   777    				ld b,0
00051E 09                  B   778    				add hl,bc
00051F 5E                  B   779    				ld e,(hl)			
                           B   780    
Zilog eZ80 Macro Assembler Version 4.1 (10060805)02-Feb-11     16:18:35     page:  22


PC     Object              I  Line    Source E:\MY_OWN~1\Coding\EZ80PR~1\Code\PROSEA~1\PROTRA~3\src\50Hz_Z80_Protracker_Player_v505.asm
000520 DDE5                B   781    vib_gotd		push ix
000522 FD7E 0A             B   782    				ld a,(iy+vibrato_args)	
000525 2F                  B   783    				cpl
000526 E60F                B   784    				and 0fh			
000528 4F                  B   785    				ld c,a							000529 0600                B   786    				ld b,0			
00052B 50                  B   787    				ld d,b
00052C 21 37 05            B   788    				ld hl,vmul15
00052F 09                  B   789    				add hl,bc
000530 E5                  B   790    				push hl
000531 DDE1                B   791    				pop ix
000533 60                  B   792    				ld h,b
000534 68                  B   793    				ld l,b
000535 DDE9                B   794    				jp (ix)							000537 19                  B   795    vmul15			add hl,de						000538 19                  B   796    vmul14			add hl,de						000539 19                  B   797    vmul13			add hl,de						00053A 19                  B   798    vmul12			add hl,de						00053B 19                  B   799    vmul11			add hl,de						00053C 19                  B   800    vmul10			add hl,de						00053D 19                  B   801    vmul9			add hl,de						00053E 19                  B   802    vmul8			add hl,de						00053F 19                  B   803    vmul7			add hl,de						000540 19                  B   804    vmul6			add hl,de						000541 19                  B   805    vmul5			add hl,de						000542 19                  B   806    vmul4			add hl,de						000543 19                  B   807    vmul3			add hl,de						000544 19                  B   808    vmul2			add hl,de						000545 19                  B   809    vmul1			add hl,de						000546 CB25                B   810    vmul0			sla l							000548 CB14                B   811    				rl h
00054A 5C                  B   812    				ld e,h
00054B 1600                B   813    				ld d,0
00054D DDE1                B   814    				pop ix
                           B   815    				
00054F FD6E 06             B   816    				ld l,(iy+period_for_fx_lo)		000552 FD66 07             B   817    				ld h,(iy+period_for_fx_hi)
000555 FDCB 0B 7E          B   818    				bit 7,(iy+vibrato_pos)
000559 20 03               B   819    				jr nz,vib_sub	
00055B 19                  B   820    				add hl,de						00055C 18 03               B   821    				jr vib_pdone
00055E AF                  B   822    vib_sub			xor a
00055F ED52                B   823    				sbc hl,de						000561 FD75 01             B   824    vib_pdone		ld (iy+period_lo),l
000564 FD74 02             B   825    				ld (iy+period_hi),h
                           B   826    
000567 FD46 0B             B   827    				ld b,(iy+vibrato_pos)			00056A FD7E 0A             B   828    				ld a,(iy+vibrato_args)
00056D CB3F                B   829    				srl a
00056F CB3F                B   830    				srl a
000571 E63C                B   831    				and 3ch							000573 80                  B   832    				add a,b
Zilog eZ80 Macro Assembler Version 4.1 (10060805)02-Feb-11     16:18:35     page:  23


PC     Object              I  Line    Source E:\MY_OWN~1\Coding\EZ80PR~1\Code\PROSEA~1\PROTRA~3\src\50Hz_Z80_Protracker_Player_v505.asm
000574 FD77 0B             B   833    				ld (iy+vibrato_pos),a			000577 C9                  B   834    				ret
                           B   835    
                           B   836    
                           B   837    ;-------- FX $05 ------------------------------
                           B   838    				
000578                     B   839    tone_portamento_volslide
                           B   840    
000578 CD F2 03            B   841    				call tone_portamento
00057B C3 82 06            B   842    				jp volslide
                           B   843    
                           B   844    			
                           B   845    ;-------- FX $06 ------------------------------
                           B   846    				
00057E                     B   847    vibrato_volslide	
                           B   848    				
00057E CD C0 04            B   849    				call vibrato
000581 C3 82 06            B   850    				jp volslide
                           B   851    				
                           B   852    				
                           B   853    ;-------- FX $07 ------------------------------
                           B   854    
000584 FD46 0C             B   855    tremolo			ld b,(iy+tremolo_args)			000587 FD7E 05             B   856    				ld a,(iy+fx_args)
00058A B7                  B   857    				or a
00058B 28 16               B   858    				jr z,trersame					00058D 4F                  B   859    				ld c,a
00058E E60F                B   860    				and 15
000590 28 06               B   861    				jr z,tredsame					000592 57                  B   862    				ld d,a
000593 78                  B   863    				ld a,b
000594 E6F0                B   864    				and 0f0h
000596 B2                  B   865    				or d
000597 47                  B   866    				ld b,a							000598 79                  B   867    tredsame		ld a,c
000599 E6F0                B   868    				and 0f0h
00059B 28 06               B   869    				jr z,trersame					00059D 4F                  B   870    				ld c,a
00059E 78                  B   871    				ld a,b
00059F E60F                B   872    				and 0fh
0005A1 B1                  B   873    				or c							0005A2 47                  B   874    				ld b,a			
0005A3 FD70 0C             B   875    trersame		ld (iy+tremolo_args),b			                           B   876    				
0005A6 FD4E 0D             B   877    				ld c,(iy+tremolo_pos)
0005A9 CB39                B   878    				srl c
0005AB CB39                B   879    				srl c
0005AD 79                  B   880    				ld a,c
0005AE E61F                B   881    				and 1fh
0005B0 4F                  B   882    				ld c,a							0005B1 FD7E 0E             B   883    				ld a,(iy+wave_type)				0005B4 CB3F                B   884    				srl a
Zilog eZ80 Macro Assembler Version 4.1 (10060805)02-Feb-11     16:18:35     page:  24


PC     Object              I  Line    Source E:\MY_OWN~1\Coding\EZ80PR~1\Code\PROSEA~1\PROTRA~3\src\50Hz_Z80_Protracker_Player_v505.asm
0005B6 CB3F                B   885    				srl a
0005B8 CB3F                B   886    				srl a
0005BA CB3F                B   887    				srl a
0005BC E60F                B   888    				and 0fh							0005BE 28 1D               B   889    				jr z,tre_sine					0005C0 CB21                B   890    				sla c		
0005C2 CB21                B   891    				sla c
0005C4 CB21                B   892    				sla c							0005C6 FE01                B   893    				cp 1
0005C8 28 04               B   894    				jr z,tre_ramp					0005CA 1EFF                B   895    				ld e,255			
0005CC 18 16               B   896    				jr tre_gotd						                           B   897    
0005CE FDCB 0D 7E          B   898    tre_ramp		bit 7,(iy+tremolo_pos)			0005D2 28 06               B   899    				jr z,trer2
0005D4 3EFF                B   900    				ld a,255
0005D6 91                  B   901    				sub c
0005D7 5F                  B   902    				ld e,a
0005D8 18 0A               B   903    				jr tre_gotd
0005DA 59                  B   904    trer2			ld e,c
0005DB 18 07               B   905    				jr tre_gotd
                           B   906    
0005DD 21 24 10            B   907    tre_sine		ld hl,vibrato_table				0005E0 0600                B   908    				ld b,0
0005E2 09                  B   909    				add hl,bc
0005E3 5E                  B   910    				ld e,(hl)			
                           B   911    
0005E4 DDE5                B   912    tre_gotd		push ix
0005E6 FD7E 0C             B   913    				ld a,(iy+tremolo_args)	
0005E9 2F                  B   914    				cpl
0005EA E60F                B   915    				and 0fh			
0005EC 4F                  B   916    				ld c,a							0005ED 0600                B   917    				ld b,0			
0005EF 50                  B   918    				ld d,b
0005F0 21 FB 05            B   919    				ld hl,tmul15
0005F3 09                  B   920    				add hl,bc
0005F4 E5                  B   921    				push hl
0005F5 DDE1                B   922    				pop ix
0005F7 60                  B   923    				ld h,b
0005F8 68                  B   924    				ld l,b
0005F9 DDE9                B   925    				jp (ix)							0005FB 19                  B   926    tmul15			add hl,de						0005FC 19                  B   927    tmul14			add hl,de						0005FD 19                  B   928    tmul13			add hl,de						0005FE 19                  B   929    tmul12			add hl,de						0005FF 19                  B   930    tmul11			add hl,de						000600 19                  B   931    tmul10			add hl,de						000601 19                  B   932    tmul9			add hl,de						000602 19                  B   933    tmul8			add hl,de						000603 19                  B   934    tmul7			add hl,de						000604 19                  B   935    tmul6			add hl,de						000605 19                  B   936    tmul5			add hl,de						Zilog eZ80 Macro Assembler Version 4.1 (10060805)02-Feb-11     16:18:35     page:  25


PC     Object              I  Line    Source E:\MY_OWN~1\Coding\EZ80PR~1\Code\PROSEA~1\PROTRA~3\src\50Hz_Z80_Protracker_Player_v505.asm
000606 19                  B   937    tmul4			add hl,de						000607 19                  B   938    tmul3			add hl,de						000608 19                  B   939    tmul2			add hl,de						000609 19                  B   940    tmul1			add hl,de						00060A CB25                B   941    tmul0			sla l							00060C CB14                B   942    				rl h
00060E CB25                B   943    				sla l
000610 CB14                B   944    				rl h
000612 6C                  B   945    				ld l,h
000613 DDE1                B   946    				pop ix
                           B   947    				
000615 FD7E 08             B   948    tshftl			ld a,(iy+volume_for_fx)			000618 FDCB 0D 7E          B   949    				bit 7,(iy+tremolo_pos)
00061C 20 09               B   950    				jr nz,tre_sub	
00061E 85                  B   951    				add a,l							00061F FE40                B   952    				cp 64
000621 38 08               B   953    				jr c,tre_done
000623 3E40                B   954    				ld a,64
000625 18 04               B   955    				jr tre_done
000627 95                  B   956    tre_sub			sub l							000628 30 01               B   957    				jr nc,tre_done
00062A AF                  B   958    				xor a
00062B FD77 03             B   959    tre_done		ld (iy+volume),a
                           B   960    				
00062E FD46 0D             B   961    				ld b,(iy+tremolo_pos)			000631 FD7E 0C             B   962    				ld a,(iy+tremolo_args)
000634 CB3F                B   963    				srl a
000636 CB3F                B   964    				srl a
000638 E63C                B   965    				and 3ch							00063A 80                  B   966    				add a,b
00063B FD77 0D             B   967    				ld (iy+tremolo_pos),a			00063E C9                  B   968    				ret
                           B   969    
                           B   970    ;-------- FX $09 ------------------------------
                           B   971    
00063F                     B   972    sample_offset
                           B   973    
00063F FD7E 05             B   974    				ld a,(iy+fx_args)		
000642 B7                  B   975    				or a
000643 28 0D               B   976    				jr z,usexoffs					000645 47                  B   977    				ld b,a
000646 0E00                B   978    				ld c,0
000648 CB38                B   979    				srl b
00064A CB19                B   980    				rr c							00064C FD71 1F             B   981    				ld (iy+samp_offset_lo),c
00064F FD70 20             B   982    				ld (iy+samp_offset_hi),b
                           B   983    				
000652 FD4E 1F             B   984    usexoffs		ld c,(iy+samp_offset_lo)		000655 FD46 20             B   985    				ld b,(iy+samp_offset_hi)
000658 FD6E 19             B   986    				ld l,(iy+samp_len_lo)
00065B FD66 1A             B   987    				ld h,(iy+samp_len_hi)
00065E AF                  B   988    				xor a
Zilog eZ80 Macro Assembler Version 4.1 (10060805)02-Feb-11     16:18:35     page:  26


PC     Object              I  Line    Source E:\MY_OWN~1\Coding\EZ80PR~1\Code\PROSEA~1\PROTRA~3\src\50Hz_Z80_Protracker_Player_v505.asm
00065F ED42                B   989    				sbc hl,bc
000661 28 16               B   990    				jr z,soffbad
000663 38 14               B   991    				jr c,soffbad
000665 FD75 19             B   992    				ld (iy+samp_len_lo),l			000668 FD74 1A             B   993    				ld (iy+samp_len_hi),h
00066B FD6E 17             B   994    				ld l,(iy+samp_loc_lo)
00066E FD66 18             B   995    				ld h,(iy+samp_loc_hi)
000671 09                  B   996    				add hl,bc
000672 FD75 17             B   997    				ld (iy+samp_loc_lo),l			000675 FD74 18             B   998    				ld (iy+samp_loc_hi),h
000678 C9                  B   999    				ret
                           B  1000    
000679 FD36 19 01          B  1001    soffbad			ld (iy+samp_len_lo),1			00067D FD36 1A 00          B  1002    				ld (iy+samp_len_hi),0			000681 C9                  B  1003    				ret
                           B  1004    				
                           B  1005    
                           B  1006    ;-------- FX $0A ------------------------------
                           B  1007    
                           B  1008    
000682 FD7E 05             B  1009    volslide		ld a,(iy+fx_args)				000685 47                  B  1010    				ld b,a
000686 E60F                B  1011    				and 15			
000688 28 0B               B  1012    				jr z,volup
00068A FD7E 03             B  1013    				ld a,(iy+volume)
00068D 90                  B  1014    				sub b
00068E 30 01               B  1015    				jr nc,voldok
000690 AF                  B  1016    				xor a
000691 FD77 03             B  1017    voldok			ld (iy+volume),a
000694 C9                  B  1018    				ret
                           B  1019    
000695 78                  B  1020    volup			ld a,b							000696 0F                  B  1021    				rrca
000697 0F                  B  1022    				rrca
000698 0F                  B  1023    				rrca
000699 0F                  B  1024    				rrca
00069A FD86 03             B  1025    				add a,(iy+volume)
00069D FE40                B  1026    				cp 64
00069F 38 02               B  1027    				jr c,voluok
0006A1 3E40                B  1028    				ld a,64
0006A3 FD77 03             B  1029    voluok			ld (iy+volume),a
0006A6 C9                  B  1030    				ret
                           B  1031    
                           B  1032    
                           B  1033    ;-------- FX $0B ------------------------------
                           B  1034    
0006A7                     B  1035    position_jump
                           B  1036    
0006A7 FD7E 05             B  1037    				ld a,(iy+fx_args)
0006AA 32 C7 10            B  1038    				ld (songpos),a
0006AD 3EFF                B  1039    				ld a,255
0006AF 32 C8 10            B  1040    				ld (patindex),a
Zilog eZ80 Macro Assembler Version 4.1 (10060805)02-Feb-11     16:18:35     page:  27


PC     Object              I  Line    Source E:\MY_OWN~1\Coding\EZ80PR~1\Code\PROSEA~1\PROTRA~3\src\50Hz_Z80_Protracker_Player_v505.asm
0006B2 C9                  B  1041    				ret
                           B  1042    
                           B  1043    
                           B  1044    ;-------- FX $0C ------------------------------
                           B  1045    
0006B3                     B  1046    set_volume
                           B  1047    				
0006B3 FD7E 05             B  1048    				ld a,(iy+fx_args)
0006B6 FE40                B  1049    				cp 40h
0006B8 38 02               B  1050    				jr c,vsetok
0006BA 3E40                B  1051    				ld a,40h
0006BC FD77 03             B  1052    vsetok			ld (iy+volume),a
0006BF FD77 13             B  1053    				ld (iy+volume_waiting),a
0006C2 C9                  B  1054    				ret
                           B  1055    
                           B  1056    
                           B  1057    ;-------- FX $0D ------------------------------
                           B  1058    
0006C3                     B  1059    pattern_break
                           B  1060    				
0006C3 FD7E 05             B  1061    				ld a,(iy+fx_args)
0006C6 47                  B  1062    				ld b,a
0006C7 CB3F                B  1063    				srl a
0006C9 CB3F                B  1064    				srl a
0006CB CB3F                B  1065    				srl a
0006CD CB3F                B  1066    				srl a
0006CF 4F                  B  1067    				ld c,a
0006D0 81                  B  1068    				add a,c
0006D1 81                  B  1069    				add a,c
0006D2 81                  B  1070    				add a,c
0006D3 81                  B  1071    				add a,c
0006D4 CB27                B  1072    				sla a
0006D6 4F                  B  1073    				ld c,a
0006D7 78                  B  1074    				ld a,b
0006D8 E60F                B  1075    				and 0fh
0006DA 81                  B  1076    				add a,c
0006DB 3D                  B  1077    				dec a
0006DC 32 C8 10            B  1078    				ld (patindex),a
0006DF 21 C7 10            B  1079    				ld hl,songpos
0006E2 34                  B  1080    				inc (hl)
0006E3 3A 5E 1D            B  1081    				ld a,(music_module+950)
0006E6 BE                  B  1082    				cp (hl)							0006E7 20 02               B  1083    				jr nz,nspw_pb
0006E9 3600                B  1084    				ld (hl),0
0006EB C9                  B  1085    nspw_pb			ret
                           B  1086    
                           B  1087    				
                           B  1088    ;-------- FX $0E ------------------------------
                           B  1089    
                           B  1090    
0006EC                     B  1091    extended_fx
                           B  1092    
Zilog eZ80 Macro Assembler Version 4.1 (10060805)02-Feb-11     16:18:35     page:  28


PC     Object              I  Line    Source E:\MY_OWN~1\Coding\EZ80PR~1\Code\PROSEA~1\PROTRA~3\src\50Hz_Z80_Protracker_Player_v505.asm
0006EC FD7E 05             B  1093    				ld a,(iy+fx_args)
0006EF 47                  B  1094    				ld b,a
0006F0 E6F0                B  1095    				and 0f0h
0006F2 FE00                B  1096    				cp 0h
0006F4 28 40               B  1097    				jr z,e0_filter
0006F6 FE10                B  1098    				cp 10h
0006F8 28 43               B  1099    				jr z,e1_fineport_up
0006FA FE20                B  1100    				cp 20h
0006FC 28 69               B  1101    				jr z,e2_fineport_down
0006FE FE30                B  1102    				cp 30h
000700 CA 91 07            B  1103    				jp z,e3_glissando_control
000703 FE40                B  1104    				cp 40h
000705 CA 9E 07            B  1105    				jp z,e4_vibrato_control
000708 FE50                B  1106    				cp 50h
00070A CA AC 07            B  1107    				jp z,e5_finetune_control
00070D FE60                B  1108    				cp 60h
00070F CA B3 07            B  1109    				jp z,e6_pattern_loop
000712 FE70                B  1110    				cp 70h
000714 CA D8 07            B  1111    				jp z,e7_tremolo_control
000717 FE90                B  1112    				cp 90h
000719 CA EE 07            B  1113    				jp z,e9_retrigger_note
00071C FEA0                B  1114    				cp 0a0h
00071E CA 04 08            B  1115    				jp z,ea_finevol_up
000721 FEB0                B  1116    				cp 0b0h
000723 CA 19 08            B  1117    				jp z,eb_finevol_down
000726 FEC0                B  1118    				cp 0c0h
000728 CA 2D 08            B  1119    				jp z,ec_cutnote
00072B FED0                B  1120    				cp 0d0h
00072D CA 3B 08            B  1121    				jp z,ed_delayedtrig
000730 FEE0                B  1122    				cp 0e0h
000732 CA 7C 08            B  1123    				jp z,ee_pattdelay
000735 C9                  B  1124    				ret
                           B  1125    
000736                     B  1126    e0_filter
                           B  1127    
000736 78                  B  1128    				ld a,b							000737 E601                B  1129    				and 01h			
000739 32 CF 10            B  1130    				ld (filter_on_off),a
00073C C9                  B  1131    				ret
                           B  1132    				
                           B  1133    
00073D                     B  1134    e1_fineport_up
                           B  1135    
00073D 3A C6 10            B  1136    				ld a,(ticker)
000740 B7                  B  1137    				or a
000741 C0                  B  1138    				ret nz
000742 0600                B  1139    				ld b,0							000744 FD7E 05             B  1140    				ld a,(iy+fx_args)		
000747 E60F                B  1141    				and 0fh
000749 4F                  B  1142    				ld c,a
00074A FD6E 01             B  1143    				ld l,(iy+period_lo)
00074D FD66 02             B  1144    				ld h,(iy+period_hi)
Zilog eZ80 Macro Assembler Version 4.1 (10060805)02-Feb-11     16:18:35     page:  29


PC     Object              I  Line    Source E:\MY_OWN~1\Coding\EZ80PR~1\Code\PROSEA~1\PROTRA~3\src\50Hz_Z80_Protracker_Player_v505.asm
000750 AF                  B  1145    				xor a
000751 ED42                B  1146    				sbc hl,bc
000753 38 08               B  1147    				jr c,fportumin
000755 B4                  B  1148    				or h
000756 20 08               B  1149    				jr nz,fportugnp
000758 7D                  B  1150    				ld a,l
000759 FE71                B  1151    				cp 113
00075B 30 03               B  1152    				jr nc,fportugnp
00075D 217100              B  1153    fportumin		ld hl,113						000760 FD75 01             B  1154    fportugnp		ld (iy+period_lo),l
000763 FD74 02             B  1155    				ld (iy+period_hi),h
000766 C9                  B  1156    				ret
                           B  1157    
                           B  1158    
000767                     B  1159    e2_fineport_down
                           B  1160    				
000767 3A C6 10            B  1161    				ld a,(ticker)
00076A B7                  B  1162    				or a
00076B C0                  B  1163    				ret nz
00076C 0600                B  1164    				ld b,0							00076E FD7E 05             B  1165    				ld a,(iy+fx_args)		
000771 E60F                B  1166    				and 0fh
000773 4F                  B  1167    				ld c,a
000774 FD6E 01             B  1168    				ld l,(iy+period_lo)
000777 FD66 02             B  1169    				ld h,(iy+period_hi)
00077A 09                  B  1170    				add hl,bc
00077B 7C                  B  1171    				ld a,h
00077C FE03                B  1172    				cp 3
00077E 38 0A               B  1173    				jr c,fportdgnp
000780 20 05               B  1174    				jr nz,fportdmax
000782 7D                  B  1175    				ld a,l
000783 FE58                B  1176    				cp 88
000785 38 03               B  1177    				jr c,fportdgnp
000787 215803              B  1178    fportdmax		ld hl,856						00078A FD75 01             B  1179    fportdgnp		ld (iy+period_lo),l
00078D FD74 02             B  1180    				ld (iy+period_hi),h
000790 C9                  B  1181    				ret
                           B  1182    
                           B  1183    
000791                     B  1184    e3_glissando_control
                           B  1185    
000791 FDCB 0F 8E          B  1186    				res 1,(iy+control_bits)
000795 78                  B  1187    				ld a,b
000796 E601                B  1188    				and 01h
000798 C8                  B  1189    				ret z
000799 FDCB 0F CE          B  1190    				set 1,(iy+control_bits)
00079D C9                  B  1191    				ret
                           B  1192    
                           B  1193    
00079E                     B  1194    e4_vibrato_control
                           B  1195    				
00079E 78                  B  1196    				ld a,b
Zilog eZ80 Macro Assembler Version 4.1 (10060805)02-Feb-11     16:18:35     page:  30


PC     Object              I  Line    Source E:\MY_OWN~1\Coding\EZ80PR~1\Code\PROSEA~1\PROTRA~3\src\50Hz_Z80_Protracker_Player_v505.asm
00079F E607                B  1197    				and 07h
0007A1 47                  B  1198    				ld b,a
0007A2 FD7E 0E             B  1199    				ld a,(iy+wave_type)
0007A5 E6F0                B  1200    				and 0f0h
0007A7 B0                  B  1201    				or b
0007A8 FD77 0E             B  1202    				ld (iy+wave_type),a
0007AB C9                  B  1203    				ret
                           B  1204    
                           B  1205    
0007AC                     B  1206    e5_finetune_control
                           B  1207    				
0007AC 78                  B  1208    				ld a,b							0007AD E60F                B  1209    				and 0fh			
0007AF FD77 14             B  1210    				ld (iy+finetune),a
0007B2 C9                  B  1211    				ret
                           B  1212    
                           B  1213    
0007B3                     B  1214    e6_pattern_loop
                           B  1215    
0007B3 3A C6 10            B  1216    				ld a,(ticker)
0007B6 B7                  B  1217    				or a
0007B7 C0                  B  1218    				ret nz
0007B8 78                  B  1219    				ld a,b
0007B9 E60F                B  1220    				and 0fh
0007BB 28 14               B  1221    				jr z,setplp
0007BD 21 CC 10            B  1222    				ld hl,pattloop_count
0007C0 34                  B  1223    				inc (hl)
0007C1 BE                  B  1224    				cp (hl)
0007C2 38 08               B  1225    				jr c,plp_end
0007C4 3A CB 10            B  1226    				ld a,(pattloop_pos)				0007C7 3D                  B  1227    				dec a							0007C8 32 C8 10            B  1228    				ld (patindex),a
0007CB C9                  B  1229    				ret
0007CC AF                  B  1230    plp_end			xor a			
0007CD 32 CC 10            B  1231    				ld (pattloop_count),a			0007D0 C9                  B  1232    				ret
0007D1 3A C8 10            B  1233    setplp			ld a,(patindex)					0007D4 32 CB 10            B  1234    				ld (pattloop_pos),a
0007D7 C9                  B  1235    				ret
                           B  1236    				
                           B  1237    
0007D8                     B  1238    e7_tremolo_control
                           B  1239    				
0007D8 78                  B  1240    				ld a,b
0007D9 E607                B  1241    				and 07h
0007DB 47                  B  1242    				ld b,a
0007DC CB20                B  1243    				sla b
0007DE CB20                B  1244    				sla b
0007E0 CB20                B  1245    				sla b
0007E2 CB20                B  1246    				sla b
0007E4 FD7E 0E             B  1247    				ld a,(iy+wave_type)
0007E7 E60F                B  1248    				and 0fh
Zilog eZ80 Macro Assembler Version 4.1 (10060805)02-Feb-11     16:18:35     page:  31


PC     Object              I  Line    Source E:\MY_OWN~1\Coding\EZ80PR~1\Code\PROSEA~1\PROTRA~3\src\50Hz_Z80_Protracker_Player_v505.asm
0007E9 B0                  B  1249    				or b
0007EA FD77 0E             B  1250    				ld (iy+wave_type),a
0007ED C9                  B  1251    				ret
                           B  1252    				
                           B  1253    
0007EE                     B  1254    e9_retrigger_note
                           B  1255    
0007EE 78                  B  1256    				ld a,b
0007EF E60F                B  1257    				and 0fh
0007F1 C8                  B  1258    				ret z
0007F2 47                  B  1259    				ld b,a
0007F3 3A C6 10            B  1260    				ld a,(ticker)
0007F6 B7                  B  1261    				or a
0007F7 28 06               B  1262    				jr z,retrigit
0007F9 90                  B  1263    rtloop			sub b
0007FA 28 03               B  1264    				jr z,retrigit
0007FC 30 FB               B  1265    				jr nc,rtloop
0007FE C9                  B  1266    				ret
0007FF FDCB 0F C6          B  1267    retrigit		set 0,(iy+control_bits)
000803 C9                  B  1268    				ret
                           B  1269    				
                           B  1270    
                           B  1271    
000804                     B  1272    ea_finevol_up
                           B  1273    
000804 3A C6 10            B  1274    				ld a,(ticker)
000807 B7                  B  1275    				or a
000808 C0                  B  1276    				ret nz
000809 78                  B  1277    				ld a,b
00080A E60F                B  1278    				and 0fh
00080C FD86 03             B  1279    				add a,(iy+volume)
00080F FE40                B  1280    				cp 64
000811 38 02               B  1281    				jr c,eavolok
000813 3E40                B  1282    				ld a,64
000815 FD77 03             B  1283    eavolok			ld (iy+volume),a
000818 C9                  B  1284    				ret
                           B  1285    				
                           B  1286    
000819                     B  1287    eb_finevol_down
                           B  1288    					
000819 3A C6 10            B  1289    				ld a,(ticker)
00081C B7                  B  1290    				or a
00081D C0                  B  1291    				ret nz
00081E 78                  B  1292    				ld a,b
00081F E60F                B  1293    				and 0fh
000821 47                  B  1294    				ld b,a
000822 FD7E 03             B  1295    				ld a,(iy+volume)
000825 90                  B  1296    				sub b
000826 30 01               B  1297    				jr nc,ebvolok
000828 AF                  B  1298    				xor a
000829 FD77 03             B  1299    ebvolok			ld (iy+volume),a
00082C C9                  B  1300    				ret
Zilog eZ80 Macro Assembler Version 4.1 (10060805)02-Feb-11     16:18:35     page:  32


PC     Object              I  Line    Source E:\MY_OWN~1\Coding\EZ80PR~1\Code\PROSEA~1\PROTRA~3\src\50Hz_Z80_Protracker_Player_v505.asm
                           B  1301    
                           B  1302    
00082D                     B  1303    ec_cutnote
                           B  1304    
00082D 78                  B  1305    				ld a,b
00082E E60F                B  1306    				and 0fh
000830 47                  B  1307    				ld b,a
000831 3A C6 10            B  1308    				ld a,(ticker)
000834 B8                  B  1309    				cp b
000835 C0                  B  1310    				ret nz
000836 AF                  B  1311    				xor a
000837 FD77 03             B  1312    				ld (iy+volume),a
00083A C9                  B  1313    				ret
                           B  1314    				
                           B  1315    
                           B  1316    
                           B  1317    				
00083B                     B  1318    ed_delayedtrig	
                           B  1319    				
00083B 78                  B  1320    				ld a,b
00083C E60F                B  1321    				and 0fh
00083E 47                  B  1322    				ld b,a
00083F 3A C6 10            B  1323    				ld a,(ticker)
000842 B8                  B  1324    				cp b
000843 C0                  B  1325    				ret nz
                           B  1326    				
000844 FDCB 0F 5E          B  1327    				bit 3,(iy+control_bits)			000848 28 17               B  1328    				jr z,ed_nonewp2
00084A FD4E 06             B  1329    				ld c,(iy+period_for_fx_lo)		00084D FD46 07             B  1330    				ld b,(iy+period_for_fx_hi)
000850 FD71 01             B  1331    				ld (iy+period_lo),c
000853 FD70 02             B  1332    				ld (iy+period_hi),b
000856 FDCB 0F C6          B  1333    				set 0,(iy+control_bits)			00085A FD7E 12             B  1334    				ld a,(iy+instrument_waiting)	00085D B7                  B  1335    				or a
00085E C8                  B  1336    				ret z
00085F 18 0E               B  1337    				jr ed_do_vol					                           B  1338    				
000861                     B  1339    ed_nonewp2
                           B  1340    
000861 FD7E 12             B  1341    				ld a,(iy+instrument_waiting)	000864 B7                  B  1342    				or a							000865 C8                  B  1343    				ret z
000866 FDBE 00             B  1344    				cp (iy+instrument)			
000869 28 04               B  1345    				jr z,ed_do_vol
00086B FDCB 0F C6          B  1346    				set 0,(iy+control_bits)
                           B  1347    
00086F FD77 00             B  1348    ed_do_vol		ld (iy+instrument),a
000872 FD7E 13             B  1349    				ld a,(iy+volume_waiting)		000875 FD77 03             B  1350    				ld (iy+volume),a	
000878 FD77 08             B  1351    				ld (iy+volume_for_fx),a			00087B C9                  B  1352    				ret
Zilog eZ80 Macro Assembler Version 4.1 (10060805)02-Feb-11     16:18:35     page:  33


PC     Object              I  Line    Source E:\MY_OWN~1\Coding\EZ80PR~1\Code\PROSEA~1\PROTRA~3\src\50Hz_Z80_Protracker_Player_v505.asm
                           B  1353    
                           B  1354    
                           B  1355    
                           B  1356    				
                           B  1357    				
00087C                     B  1358    ee_pattdelay
                           B  1359    
00087C 3A CE 10            B  1360    				ld a,(pattdelay_flag)			00087F B7                  B  1361    				or a
000880 C0                  B  1362    				ret nz
000881 78                  B  1363    				ld a,b
000882 E60F                B  1364    				and 0fh
000884 32 CD 10            B  1365    				ld (pattdelay_count),a
000887 3E01                B  1366    				ld a,1
000889 32 CE 10            B  1367    				ld (pattdelay_flag),a
00088C C9                  B  1368    				ret
                           B  1369    				
                           B  1370    
                           B  1371    
                           B  1372    ;-------- FX $0F ------------------------------
                           B  1373    
00088D                     B  1374    set_speed
00088D FD7E 05             B  1375    				ld a,(iy+fx_args)
000890 32 C9 10            B  1376    				ld (songspeed),a
000893 C9                  B  1377    				ret
                           B  1378    
                           B  1379    
                           B  1380    ;---- Amiga Period List -----------------------
                           B  1381    
000894                     B  1382    period_lookup_table	
                           B  1383    
000894 23000000 00000022   B  1384    					DB 35,0,0,0,0,0,0,34,0,0,0,
00089C 00000000 00002100 
0008A4 00000000 00002000   B  1385    					DB 0,0,0,0,0,0,32,0,0,0,0,0
0008AC 00000000 00001F00 
0008B4 00000000 00001E00   B  1386    					DB 0,0,0,0,0,0,30,0,0,0,0,0
0008BC 00000000 0000001D 
0008C4 00000000 00000000   B  1387    					DB 0,0,0,0,0,0,0,0,0,28,0,0
0008CC 001C0000 00000000 
0008D4 0000001B 00000000   B  1388    					DB 0,0,0,27,0,0,0,0,0,0,0,0
0008DC 00000000 001A0000 
0008E4 00000000 00000000   B  1389    					DB 0,0,0,0,0,0,0,0,0,25,0,0
0008EC 00190000 00000000 
0008F4 00000000 00180000   B  1390    					DB 0,0,0,0,0,24,0,0,0,0,0,0
0008FC 00000000 00000000 
000904 00170000 00000000   B  1391    					DB 0,23,0,0,0,0,0,0,0,0,0,0
00090C 00000000 00000016 
000914 00000000 00000000   B  1392    					DB 0,0,0,0,0,0,0,0,0,0,0,0,
00091C 00000000 00150000 
000924 00000000 00000000   B  1393    					DB 0,0,0,0,0,0,0,0,0,0,0,0,
00092C 00000000 14000000 
000934 00000000 00000000   B  1394    					DB 0,0,0,0,0,0,0,0,0,0,0,0,
Zilog eZ80 Macro Assembler Version 4.1 (10060805)02-Feb-11     16:18:35     page:  34


PC     Object              I  Line    Source E:\MY_OWN~1\Coding\EZ80PR~1\Code\PROSEA~1\PROTRA~3\src\50Hz_Z80_Protracker_Player_v505.asm
00093C 00000000 13000000 
000944 00000000 00000000   B  1395    					DB 0,0,0,0,0,0,0,0,0,0,0,0,
00094C 00000000 00120000 
000954 00000000 00000000   B  1396    					DB 0,0,0,0,0,0,0,0,0,0,0,0,
00095C 00000000 00000011 
000964 00000000 00000000   B  1397    					DB 0,0,0,0,0,0,0,0,0,0,0,0,
00096C 00000000 00000000 
000974 00001000 00000000   B  1398    					DB 0,0,16,0,0,0,0,0,0,0,0,0
00097C 00000000 00000000 
000984 00000000 0000000F   B  1399    					DB 0,0,0,0,0,0,0,15,0,0,0,0
00098C 00000000 00000000 
000994 00000000 00000000   B  1400    					DB 0,0,0,0,0,0,0,0,0,0,0,0,
00099C 00000000 0E000000 
0009A4 00000000 00000000   B  1401    					DB 0,0,0,0,0,0,0,0,0,0,0,0,
0009AC 00000000 00000000 
0009B4 0000000D 00000000   B  1402    					DB 0,0,0,13,0,0,0,0,0,0,0,0
0009BC 00000000 00000000 
0009C4 00000000 00000000   B  1403    					DB 0,0,0,0,0,0,0,0,0,0,0,12
0009CC 0000000C 00000000 
0009D4 00000000 00000000   B  1404    					DB 0,0,0,0,0,0,0,0,0,0,0,0,
0009DC 00000000 00000000 
0009E4 00000000 0B000000   B  1405    					DB 0,0,0,0,11,0,0,0,0,0,0,0
0009EC 00000000 00000000 
0009F4 00000000 00000000   B  1406    					DB 0,0,0,0,0,0,0,0,0,0,0,0,
0009FC 00000000 0000000A 
000A04 00000000 00000000   B  1407    					DB 0,0,0,0,0,0,0,0,0,0,0,0,
000A0C 00000000 00000000 
000A14 00000000 00000000   B  1408    					DB 0,0,0,0,0,0,0,0,0,0,0,9,
000A1C 00000009 00000000 
000A24 00000000 00000000   B  1409    					DB 0,0,0,0,0,0,0,0,0,0,0,0,
000A2C 00000000 00000000 
000A34 00000000 00000000   B  1410    					DB 0,0,0,0,0,0,0,0,0,8,0,0,
000A3C 00080000 00000000 
000A44 00000000 00000000   B  1411    					DB 0,0,0,0,0,0,0,0,0,0,0,0,
000A4C 00000000 00000000 
000A54 00000000 00000000   B  1412    					DB 0,0,0,0,0,0,0,0,0,7,0,0,
000A5C 00070000 00000000 
000A64 00000000 00000000   B  1413    					DB 0,0,0,0,0,0,0,0,0,0,0,0,
000A6C 00000000 00000000 
000A74 00000000 00000000   B  1414    					DB 0,0,0,0,0,0,0,0,0,0,0,6,
000A7C 00000006 00000000 
000A84 00000000 00000000   B  1415    					DB 0,0,0,0,0,0,0,0,0,0,0,0,
000A8C 00000000 00000000 
000A94 00000000 00000000   B  1416    					DB 0,0,0,0,0,0,0,0,0,0,0,0,
000A9C 00000000 00000005 
000AA4 00000000 00000000   B  1417    					DB 0,0,0,0,0,0,0,0,0,0,0,0,
000AAC 00000000 00000000 
000AB4 00000000 00000000   B  1418    					DB 0,0,0,0,0,0,0,0,0,0,0,0,
000ABC 00000000 00000000 
000AC4 00000000 00040000   B  1419    					DB 0,0,0,0,0,4,0,0,0,0,0,0,
000ACC 00000000 00000000 
000AD4 00000000 00000000   B  1420    					DB 0,0,0,0,0,0,0,0,0,0,0,0,
Zilog eZ80 Macro Assembler Version 4.1 (10060805)02-Feb-11     16:18:35     page:  35


PC     Object              I  Line    Source E:\MY_OWN~1\Coding\EZ80PR~1\Code\PROSEA~1\PROTRA~3\src\50Hz_Z80_Protracker_Player_v505.asm
000ADC 00000000 00000000 
000AE4 00000000 00000000   B  1421    					DB 0,0,0,0,0,0,0,0,0,0,0,0,
000AEC 00000000 00000003 
000AF4 00000000 00000000   B  1422    					DB 0,0,0,0,0,0,0,0,0,0,0,0,
000AFC 00000000 00000000 
000B04 00000000 00000000   B  1423    					DB 0,0,0,0,0,0,0,0,0,0,0,0,
000B0C 00000000 00000000 
000B14 00000000 00000000   B  1424    					DB 0,0,0,0,0,0,0,0,0,2,0,0,
000B1C 00020000 00000000 
000B24 00000000 00000000   B  1425    					DB 0,0,0,0,0,0,0,0,0,0,0,0,
000B2C 00000000 00000000 
000B34 00000000 00000000   B  1426    					DB 0,0,0,0,0,0,0,0,0,0,0,0,
000B3C 00000000 00000000 
000B44 00000000 00000001   B  1427    					DB 0,0,0,0,0,0,0,1,0,0,0,0,
000B4C 00000000 00000000 
000B54 00000000 00000000   B  1428    					DB 0,0,0,0,0,0,0,0,0,0,0,0,
000B5C 00000000 00000000 
000B64 00000000 00000000   B  1429    					DB 0,0,0,0,0,0,0,0,0,0,0,0,
000B6C 00000000 00000000 
000B74 00000000 00000000   B  1430    					DB 0,0,0,0,0,0,0,0,0,0,0,0,
000B7C 00000000 00000000 
                           B  1431    
                           B  1432    
000B84 A40B                B  1433    tuning_table_list	dw period_table_p0
000B86 EC0B                B  1434    					dw period_table_p1
000B88 340C                B  1435    					dw period_table_p2
000B8A 7C0C                B  1436    					dw period_table_p3
000B8C C40C                B  1437    					dw period_table_p4
000B8E 0C0D                B  1438    					dw period_table_p5
000B90 540D                B  1439    					dw period_table_p6
000B92 9C0D                B  1440    					dw period_table_p7
000B94 E40D                B  1441    					dw period_table_m8
000B96 2C0E                B  1442    					dw period_table_m7
000B98 740E                B  1443    					dw period_table_m6
000B9A BC0E                B  1444    					dw period_table_m5
000B9C 040F                B  1445    					dw period_table_m4
000B9E 4C0F                B  1446    					dw period_table_m3
000BA0 940F                B  1447    					dw period_table_m2
000BA2 DC0F                B  1448    					dw period_table_m1
                           B  1449    		
                           B  1450    
000BA4 58032803 FA02D002   B  1451    period_table_p0	dw 856,808,762,720,678,640,604,
000BAC A6028002 5C023A02 
000BB4 1A02FC01 E001C501 
000BBC AC019401 7D016801   B  1452    				dw 428,404,381,360,339,320,302,
000BC4 53014001 2E011D01 
000BCC 0D01FE00 F000E200 
000BD4 D600CA00 BE00B400   B  1453    				dw 214,202,190,180,170,160,151,
000BDC AA00A000 97008F00 
000BE4 87007F00 78007100 
                           B  1454    
000BEC 52032203 F502CB02   B  1455    period_table_p1	dw 850,802,757,715,674,637,601,
Zilog eZ80 Macro Assembler Version 4.1 (10060805)02-Feb-11     16:18:35     page:  36


PC     Object              I  Line    Source E:\MY_OWN~1\Coding\EZ80PR~1\Code\PROSEA~1\PROTRA~3\src\50Hz_Z80_Protracker_Player_v505.asm
000BF4 A2027D02 59023702 
000BFC 1702F901 DD01C201 
000C04 A9019101 7B016501   B  1456    				dw 425,401,379,357,337,318,300,
000C0C 51013E01 2C011C01 
000C14 0C01FD00 EF00E100 
000C1C D500C900 BD00B300   B  1457    				dw 213,201,189,179,169,159,150,
000C24 A9009F00 96008E00 
000C2C 86007E00 77007100 
                           B  1458    
000C34 4C031C03 F002C502   B  1459    period_table_p2	dw 844,796,752,709,670,632,597,
000C3C 9E027802 55023302 
000C44 1402F601 DA01BF01 
000C4C A6018E01 78016301   B  1460    				dw 422,398,376,355,335,316,298,
000C54 4F013C01 2A011A01 
000C5C 0A01FB00 ED00E000 
000C64 D300C700 BC00B100   B  1461    				dw 211,199,188,177,167,158,149,
000C6C A7009E00 95008D00 
000C74 85007D00 76007000 
                           B  1462    
000C7C 46031703 EA02C002   B  1463    period_table_p3	dw 838,791,746,704,665,628,592,
000C84 99027402 50022F02 
000C8C 1002F201 D601BC01 
000C94 A3018B01 75016001   B  1464    				dw 419,395,373,352,332,314,296,
000C9C 4C013A01 28011801 
000CA4 0801F900 EB00DE00 
000CAC D100C600 BB00B000   B  1465    				dw 209,198,187,176,166,157,148,
000CB4 A6009D00 94008C00 
000CBC 84007D00 76006F00 
                           B  1466    
000CC4 40031103 E502BB02   B  1467    period_table_p4	dw 832,785,741,699,660,623,588,
000CCC 94026F02 4C022B02 
000CD4 0C02EF01 D301B901 
000CDC A0018801 72015E01   B  1468    				dw 416,392,370,350,330,312,294,
000CE4 4A013801 26011601 
000CEC 0601F700 E900DC00 
000CF4 D000C400 B900AF00   B  1469    				dw 208,196,185,175,165,156,147,
000CFC A5009C00 93008B00 
000D04 83007C00 75006E00 
                           B  1470    
000D0C 3A030B03 E002B602   B  1471    period_table_p5	dw 826,779,736,694,655,619,584,
000D14 8F026B02 48022702 
000D1C 0802EB01 CF01B501 
000D24 9D018601 70015B01   B  1472    				dw 413,390,368,347,328,309,292,
000D2C 48013501 24011401 
000D34 0401F500 E800DB00 
000D3C CE00C300 B800AE00   B  1473    				dw 206,195,184,174,164,155,146,
000D44 A4009B00 92008A00 
000D4C 82007B00 74006D00 
                           B  1474    
000D54 34030603 DA02B102   B  1475    period_table_p6	dw 820,774,730,689,651,614,580,
000D5C 8B026602 44022302 
000D64 0402E701 CC01B201 
Zilog eZ80 Macro Assembler Version 4.1 (10060805)02-Feb-11     16:18:35     page:  37


PC     Object              I  Line    Source E:\MY_OWN~1\Coding\EZ80PR~1\Code\PROSEA~1\PROTRA~3\src\50Hz_Z80_Protracker_Player_v505.asm
000D6C 9A018301 6D015901   B  1476    				dw 410,387,365,345,325,307,290,
000D74 45013301 22011201 
000D7C 0201F400 E600D900 
000D84 CD00C100 B700AC00   B  1477    				dw 205,193,183,172,163,154,145,
000D8C A3009A00 91008900 
000D94 81007A00 73006D00 
                           B  1478    
000D9C 2E030003 D502AC02   B  1479    period_table_p7	dw 814,768,725,684,646,610,575,
000DA4 86026202 3F021F02 
000DAC 0102E401 C901AF01 
000DB4 97018001 6B015601   B  1480    				dw 407,384,363,342,323,305,288,
000DBC 43013101 20011001 
000DC4 0001F200 E400D800 
000DCC CC00C000 B500AB00   B  1481    				dw 204,192,181,171,161,152,144,
000DD4 A1009800 90008800 
000DDC 80007900 72006C00 
                           B  1482    
000DE4 8B035803 2803FA02   B  1483    period_table_m8	dw 907,856,808,762,720,678,640,
000DEC D002A602 80025C02 
000DF4 3A021A02 FC01E001 
000DFC C501AC01 94017D01   B  1484    				dw 453,428,404,381,360,339,320,
000E04 68015301 40012E01 
000E0C 1D010D01 FE00F000 
000E14 E200D600 CA00BE00   B  1485    				dw 226,214,202,190,180,170,160,
000E1C B400AA00 A0009700 
000E24 8F008700 7F007800 
                           B  1486    
000E2C 84035203 2203F502   B  1487    period_table_m7	dw 900,850,802,757,715,675,636,
000E34 CB02A302 7C025902 
000E3C 37021702 F901DD01 
000E44 C201A901 91017B01   B  1488    				dw 450,425,401,379,357,337,318,
000E4C 65015101 3E012C01 
000E54 1C010C01 FD00EE00 
000E5C E100D400 C800BD00   B  1489    				dw 225,212,200,189,179,169,159,
000E64 B300A900 9F009600 
000E6C 8E008600 7E007700 
                           B  1490    
000E74 7E034C03 1C03F002   B  1491    period_table_m6	dw 894,844,796,752,709,670,632,
000E7C C5029E02 78025502 
000E84 33021402 F601DA01 
000E8C BF01A601 8E017801   B  1492    				dw 447,422,398,376,355,335,316,
000E94 63014F01 3C012A01 
000E9C 1A010A01 FB00ED00 
000EA4 DF00D300 C700BC00   B  1493    				dw 223,211,199,188,177,167,158,
000EAC B100A700 9E009500 
000EB4 8D008500 7D007600 
                           B  1494    
000EBC 77034603 1703EA02   B  1495    period_table_m5	dw 887,838,791,746,704,665,628,
000EC4 C0029902 74025002 
000ECC 2F021002 F201D601 
000ED4 BC01A301 8B017501   B  1496    				dw 444,419,395,373,352,332,314,
000EDC 60014C01 3A012801 
Zilog eZ80 Macro Assembler Version 4.1 (10060805)02-Feb-11     16:18:35     page:  38


PC     Object              I  Line    Source E:\MY_OWN~1\Coding\EZ80PR~1\Code\PROSEA~1\PROTRA~3\src\50Hz_Z80_Protracker_Player_v505.asm
000EE4 18010801 F900EB00 
000EEC DE00D100 C600BB00   B  1497    				dw 222,209,198,187,176,166,157,
000EF4 B000A600 9D009400 
000EFC 8C008400 7D007600 
                           B  1498    
000F04 71034003 1103E502   B  1499    period_table_m4	dw 881,832,785,741,699,660,623,
000F0C BB029402 6F024C02 
000F14 2B020C02 EE01D301 
000F1C B901A001 88017201   B  1500    				dw 441,416,392,370,350,330,312,
000F24 5E014A01 38012601 
000F2C 16010601 F700E900 
000F34 DC00D000 C400B900   B  1501    				dw 220,208,196,185,175,165,156,
000F3C AF00A500 9C009300 
000F44 8B008300 7B007500 
                           B  1502    
000F4C 6B033A03 0B03E002   B  1503    period_table_m3	dw 875,826,779,736,694,655,619,
000F54 B6028F02 6B024802 
000F5C 27020802 EB01CF01 
000F64 B5019D01 86017001   B  1504    				dw 437,413,390,368,347,328,309,
000F6C 5B014801 35012401 
000F74 14010401 F500E800 
000F7C DB00CE00 C300B800   B  1505    				dw 219,206,195,184,174,164,155,
000F84 AE00A400 9B009200 
000F8C 8A008200 7B007400 
                           B  1506    
000F94 64033403 0603DA02   B  1507    period_table_m2	dw 868,820,774,730,689,651,614,
000F9C B1028B02 66024402 
000FA4 23020402 E701CC01 
000FAC B2019A01 83016D01   B  1508    				dw 434,410,387,365,345,325,307,
000FB4 59014501 33012201 
000FBC 12010201 F400E600 
000FC4 D900CD00 C100B700   B  1509    				dw 217,205,193,183,172,163,154,
000FCC AC00A300 9A009100 
000FD4 89008100 7A007300 
                           B  1510    
000FDC 5E032E03 0003D502   B  1511    period_table_m1	dw 862,814,768,725,684,646,610,
000FE4 AC028602 62023F02 
000FEC 1F020102 E401C901 
000FF4 AF019701 80016B01   B  1512    				dw 431,407,384,363,342,323,305,
000FFC 56014301 31012001 
001004 10010001 F200E400 
00100C D800CB00 C000B500   B  1513    				dw 216,203,192,181,171,161,152,
001014 AB00A100 98009000 
00101C 88008000 79007200 
                           B  1514    
                           B  1515    ;----- Vibrato sine wave ----------------------
                           B  1516    
001024 0018314A 61788DA1   B  1517    vibrato_table		db 000,024,049,074,097,120,
00102C B4C5D4E0 EBF4FAFD   B  1518    					db 180,197,212,224,235,244,
001034 FFFDFAF4 EBE0D4C5   B  1519    					db 255,253,250,244,235,224,
00103C B4A18D78 614A3118   B  1520    					db 180,161,141,120,097,074,
                           B  1521    
Zilog eZ80 Macro Assembler Version 4.1 (10060805)02-Feb-11     16:18:35     page:  39


PC     Object              I  Line    Source E:\MY_OWN~1\Coding\EZ80PR~1\Code\PROSEA~1\PROTRA~3\src\50Hz_Z80_Protracker_Player_v505.asm
                           B  1522    ;----------------------------------------------
                           B  1523    
001044 00001E00 3C005A00   B  1524    multiply_30_table	dw 000,030,060,090,120,150,
00104C 78009600 B400D200 
001054 F0000E01 2C014A01   B  1525    					dw 240,270,300,330,360,390,
00105C 68018601 A401C201 
001064 E001FE01 1C023A02   B  1526    					dw 480,510,540,570,600,630,
00106C 58027602 9402B202 
001074 D002EE02 0C032A03   B  1527    					dw 720,750,780,810,840,870,
00107C 48036603 8403A203 
                           B  1528    
                           B  1529    ;----------------------------------------------
                           B  1530    
001084 0000                B  1531    sample_base				dw 0			; "init
001086 0000                B  1532    force_sample_base		dw 0			; set t
                           B  1533    
001088 00 00 00 00 00 00   B  1534    sample_location_list	blkb 62,0		; for 3
00108E 00 00 00 00 00 00 
001094 00 00 00 00 00 00 
00109A 00 00 00 00 00 00 
0010A0 00 00 00 00 00 00 
0010A6 00 00 00 00 00 00 
0010AC 00 00 00 00 00 00 
0010B2 00 00 00 00 00 00 
0010B8 00 00 00 00 00 00 
0010BE 00 00 00 00 00 00 
0010C4 00 00 
                           B  1535    
                           B  1536    ;----------------------------------------------
                           B  1537    
0010C6 00                  B  1538    ticker				db 0
0010C7 00                  B  1539    songpos				db 0
0010C8 00                  B  1540    patindex			db 0
0010C9 00                  B  1541    songspeed			db 0
0010CA 00                  B  1542    arpeggio_counter	db 0
0010CB 00                  B  1543    pattloop_pos		db 0
0010CC 00                  B  1544    pattloop_count		db 0
0010CD 00                  B  1545    pattdelay_count		db 0
0010CE 00                  B  1546    pattdelay_flag		db 0
0010CF 00                  B  1547    filter_on_off		db 0
                           B  1548    
                           B  1549    ;----------------------------------------------
                           B  1550    
       00000021            B  1551    vars_per_channel	equ 33
                           B  1552    
0010D0 00 00 00 00 00 00   B  1553    channel_data		blkb vars_per_channel*4,0
0010D6 00 00 00 00 00 00 
0010DC 00 00 00 00 00 00 
0010E2 00 00 00 00 00 00 
0010E8 00 00 00 00 00 00 
0010EE 00 00 00 00 00 00 
0010F4 00 00 00 00 00 00 
Zilog eZ80 Macro Assembler Version 4.1 (10060805)02-Feb-11     16:18:35     page:  40


PC     Object              I  Line    Source E:\MY_OWN~1\Coding\EZ80PR~1\Code\PROSEA~1\PROTRA~3\src\50Hz_Z80_Protracker_Player_v505.asm
0010FA 00 00 00 00 00 00 
001100 00 00 00 00 00 00 
001106 00 00 00 00 00 00 
00110C 00 00 00 00 00 00 
001112 00 00 00 00 00 00 
001118 00 00 00 00 00 00 
00111E 00 00 00 00 00 00 
001124 00 00 00 00 00 00 
00112A 00 00 00 00 00 00 
001130 00 00 00 00 00 00 
001136 00 00 00 00 00 00 
00113C 00 00 00 00 00 00 
001142 00 00 00 00 00 00 
001148 00 00 00 00 00 00 
00114E 00 00 00 00 00 00 
                           B  1554    	
       00000000            B  1555    instrument			equ 0
       00000001            B  1556    period_lo			equ 1
       00000002            B  1557    period_hi			equ 2
       00000003            B  1558    volume				equ 3
       00000004            B  1559    fx_number			equ 4
       00000005            B  1560    fx_args				equ 5
       00000006            B  1561    period_for_fx_lo	equ 6
       00000007            B  1562    period_for_fx_hi	equ 7
       00000008            B  1563    volume_for_fx		equ 8
       00000009            B  1564    portamento_rate		equ 9
       0000000A            B  1565    vibrato_args		equ 10
       0000000B            B  1566    vibrato_pos			equ 11
       0000000C            B  1567    tremolo_args		equ 12
       0000000D            B  1568    tremolo_pos			equ 13
       0000000E            B  1569    wave_type 			equ 14		;bits 7:4 = tre
       0000000F            B  1570    control_bits		equ 15		;bit 0 = note t
       00000010            B  1571    portamento_dest_lo	equ 16		;bit 2 = channe
       00000011            B  1572    portamento_dest_hi	equ 17
       00000012            B  1573    instrument_waiting	equ 18
       00000013            B  1574    volume_waiting		equ 19
       00000014            B  1575    finetune			equ 20
       00000015            B  1576    arp_base_period_lo  equ 21
       00000016            B  1577    arp_base_period_hi	equ 22
                           B  1578    
       00000017            B  1579    samp_loc_lo			equ 23
       00000018            B  1580    samp_loc_hi			equ 24
       00000019            B  1581    samp_len_lo			equ 25
       0000001A            B  1582    samp_len_hi			equ 26
       0000001B            B  1583    samp_loop_loc_lo	equ 27
       0000001C            B  1584    samp_loop_loc_hi	equ 28
       0000001D            B  1585    samp_loop_len_lo	equ 29
       0000001E            B  1586    samp_loop_len_hi	equ 30
       0000001F            B  1587    samp_offset_lo		equ 31
       00000020            B  1588    samp_offset_hi		equ 32
                           B  1589    
                           B  1590    ;==============================================
Zilog eZ80 Macro Assembler Version 4.1 (10060805)02-Feb-11     16:18:35     page:  41


PC     Object              I  Line    Source E:\MY_OWN~1\Coding\EZ80PR~1\Code\PROSEA~1\PROTRA~3\src\50Hz_Z80_Protracker_Player_v505.asm
                           B  1591    ; End of non-hardware specific Z80 Protracker c
                           B  1592    ;==============================================
                           B  1593    
                           A    91    	
                           B     0    			include "Amiga_to_EZ80P_audio.asm"
                           B     1    ;----------------------------------------------
                           B     2    ; Convert Amiga hardware values from Z80 Protra
                           B     3    ; and writes to hardware registers
                           B     4    ;----------------------------------------------
                           B     5    ;
                           B     6    ; V1.02 - Z80 mode (non-ADL code) for HW v0037
                           B     7    ; Writes 4 channels to left and right stereo (n
                           B     8    ;----------------------------------------------
                           B     9    
                           B    10    .assume ADL = 0
                           B    11    
       000010D1            B    12    firstchan_period	equ channel_data+period_lo
       000010D3            B    13    firstchan_volume	equ channel_data+volume
       000010E7            B    14    firstchan_location	equ channel_data+samp_loc_l
       000010E9            B    15    firstchan_length	equ channel_data+samp_len_l
       000010DF            B    16    firstchan_control	equ channel_data+control_bi
       000010EB            B    17    firstchan_loop_loc	equ channel_data+samp_loop_
       000010ED            B    18    firstchan_loop_len	equ channel_data+samp_loop_
                           B    19    
       000010F2            B    20    secondchan_period	equ channel_data+vars_per_c
       000010F4            B    21    secondchan_volume	equ channel_data+vars_per_c
       00001108            B    22    secondchan_location	equ channel_data+vars_per_c
       0000110A            B    23    secondchan_length	equ channel_data+vars_per_c
       00001100            B    24    secondchan_control	equ channel_data+vars_per_c
       0000110C            B    25    secondchan_loop_loc	equ channel_data+vars_per_c
       0000110E            B    26    secondchan_loop_len	equ channel_data+vars_per_c
                           B    27    
       00001113            B    28    thirdchan_period	equ channel_data+(vars_per_
       00001115            B    29    thirdchan_volume	equ channel_data+(vars_per_
       00001129            B    30    thirdchan_location	equ channel_data+(vars_per_
       0000112B            B    31    thirdchan_length	equ channel_data+(vars_per_
       00001121            B    32    thirdchan_control	equ channel_data+(vars_per_
       0000112D            B    33    thirdchan_loop_loc	equ channel_data+(vars_per_
       0000112F            B    34    thirdchan_loop_len	equ channel_data+(vars_per_
                           B    35    
       00001134            B    36    fourthchan_period	equ channel_data+(vars_per_
       00001136            B    37    fourthchan_volume	equ channel_data+(vars_per_
       0000114A            B    38    fourthchan_location	equ channel_data+(vars_per_
       0000114C            B    39    fourthchan_length	equ channel_data+(vars_per_
       00001142            B    40    fourthchan_control	equ channel_data+(vars_per_
       0000114E            B    41    fourthchan_loop_loc	equ channel_data+(vars_per_
       00001150            B    42    fourthchan_loop_len	equ channel_data+(vars_per_
                           B    43    
                           B    44    ;----------------------------------------------
                           B    45    ; EZ80P specific code
                           B    46    ;----------------------------------------------
                           B    47    
Zilog eZ80 Macro Assembler Version 4.1 (10060805)02-Feb-11     16:18:35     page:  42


PC     Object              I  Line    Source E:\MY_OWN~1\Coding\EZ80PR~1\Code\PROSEA~1\PROTRA~3\src\Amiga_to_EZ80P_audio.asm
001154                     B    48    update_audio_hardware
                           B    49    
001154 3E01                B    50    				ld a,1
001156 5B320300 F8         B    51    				ld.lil (hw_audio_registers+3),a
00115B 0E01                B    52    				ld c,port_hw_flags
00115D ED7440              B    53    wait_audreg		tstio 40h						001160 28 FB               B    54    				jr z,wait_audreg
                           B    55    				
001162 3EFF                B    56    				ld a,0ffh						001164 5B320000 F0         B    57    				ld.lil (hw_palette),a			                           B    58    				
                           B    59    ;----------------------------------------------
                           B    60    ; Write Period Constants - must be done in max 
                           B    61    ;----------------------------------------------
                           B    62    								
001169 5BDD2100 00F8       B    63    				ld.lil ix,hw_audio_registers	00116F 5BFD2180 00F8       B    64    				ld.lil iy,hw_audio_registers+80
                           B    65    				
001175 11 3A 12            B    66    				ld de,period_conv_table-200		001178 2A D1 10            B    67    				ld hl,(firstchan_period)	  	00117B 29                  B    68    				add hl,hl
00117C 19                  B    69    				add hl,de
00117D 5E                  B    70    				ld e,(hl)
00117E 23                  B    71    				inc hl
00117F 56                  B    72    				ld d,(hl)
001180 5BDD1F08            B    73    				ld.lil (ix+08h),de				001184 5BDD1F28            B    74    				ld.lil (ix+28h),de				                           B    75    				
001188 11 3A 12            B    76    				ld de,period_conv_table-200		00118B 2A F2 10            B    77    				ld hl,(secondchan_period)	  	00118E 29                  B    78    				add hl,hl
00118F 19                  B    79    				add hl,de
001190 5E                  B    80    				ld e,(hl)
001191 23                  B    81    				inc hl
001192 56                  B    82    				ld d,(hl)
001193 5BDD1F40            B    83    				ld.lil (ix+40h),de				001197 5BDD1F68            B    84    				ld.lil (ix+68h),de				                           B    85    		
00119B 11 3A 12            B    86    				ld de,period_conv_table-200		00119E 2A 13 11            B    87    				ld hl,(thirdchan_period)	  	0011A1 29                  B    88    				add hl,hl
0011A2 19                  B    89    				add hl,de
0011A3 5E                  B    90    				ld e,(hl)
0011A4 23                  B    91    				inc hl
0011A5 56                  B    92    				ld d,(hl)
0011A6 5BFD1F08            B    93    				ld.lil (iy+08h),de				0011AA 5BFD1F28            B    94    				ld.lil (iy+28h),de				                           B    95    
0011AE 11 3A 12            B    96    				ld de,period_conv_table-200		0011B1 2A 34 11            B    97    				ld hl,(fourthchan_period)	  	0011B4 29                  B    98    				add hl,hl
0011B5 19                  B    99    				add hl,de
Zilog eZ80 Macro Assembler Version 4.1 (10060805)02-Feb-11     16:18:35     page:  43


PC     Object              I  Line    Source E:\MY_OWN~1\Coding\EZ80PR~1\Code\PROSEA~1\PROTRA~3\src\Amiga_to_EZ80P_audio.asm
0011B6 5E                  B   100    				ld e,(hl)
0011B7 23                  B   101    				inc hl
0011B8 56                  B   102    				ld d,(hl)
0011B9 5BFD1F48            B   103    				ld.lil (iy+48h),de				0011BD 5BFD1F68            B   104    				ld.lil (iy+68h),de				                           B   105    
                           B   106    ;----------------------------------------------
                           B   107    ; Write Volume
                           B   108    ;----------------------------------------------
                           B   109    
                           B   110    
0011C1 3A D3 10            B   111    				ld a,(firstchan_volume)			0011C4 5F                  B   112    				ld e,a
0011C5 5BDD1F0C            B   113    				ld.lil (ix+0ch),de				0011C9 5BDD1F2C            B   114    				ld.lil (ix+2ch),de				                           B   115    				
0011CD 3A F4 10            B   116    				ld a,(secondchan_volume)
0011D0 5F                  B   117    				ld e,a
0011D1 5BDD1F4C            B   118    				ld.lil (ix+4ch),de				0011D5 5BDD1F6C            B   119    				ld.lil (ix+6ch),de
                           B   120    				
0011D9 3A 15 11            B   121    				ld a,(thirdchan_volume)
0011DC 5F                  B   122    				ld e,a
0011DD 5BFD1F0C            B   123    				ld.lil (iy+0ch),de				0011E1 5BFD1F2C            B   124    				ld.lil (iy+2ch),de
                           B   125    				
0011E5 3A 36 11            B   126    				ld a,(fourthchan_volume)
0011E8 5F                  B   127    				ld e,a
0011E9 5BFD1F4C            B   128    				ld.lil (iy+4ch),de				0011ED 5BFD1F6C            B   129    				ld.lil (iy+6ch),de
                           B   130    
                           B   131    ;----------------------------------------------
                           B   132    ; Write Loc and Len of triggered channels
                           B   133    ;----------------------------------------------
                           B   134    
0011F1 5B110000 00         B   135    				ld.lil de,0						                           B   136    
0011F6 21 DF 10            B   137    				ld hl,firstchan_control			0011F9 CB46                B   138    				bit 0,(hl)						0011FB 28 3A               B   139    				jr z,no_rt_ch0					0011FD CB86                B   140    				res 0,(hl)
0011FF 2A E7 10            B   141    				ld hl,(firstchan_location)
001202 29                  B   142    				add hl,hl
001203 5D                  B   143    				ld e,l
001204 54                  B   144    				ld d,h
001205 5BDD1F00            B   145    				ld.lil (ix),de					001209 5BDD1F20            B   146    				ld.lil (ix+20h),de				00120D 2A EB 10            B   147    				ld hl,(firstchan_loop_loc)
001210 29                  B   148    				add hl,hl
001211 5D                  B   149    				ld e,l
001212 54                  B   150    				ld d,h
001213 5BDD1F10            B   151    				ld.lil (ix+10h),de				Zilog eZ80 Macro Assembler Version 4.1 (10060805)02-Feb-11     16:18:35     page:  44


PC     Object              I  Line    Source E:\MY_OWN~1\Coding\EZ80PR~1\Code\PROSEA~1\PROTRA~3\src\Amiga_to_EZ80P_audio.asm
001217 5BDD1F30            B   152    				ld.lil (ix+30h),de				                           B   153    
00121B 2A E9 10            B   154    				ld hl,(firstchan_length)
00121E 29                  B   155    				add hl,hl
00121F 5D                  B   156    				ld e,l
001220 54                  B   157    				ld d,h
001221 5BDD1F04            B   158    				ld.lil (ix+04h),de				001225 5BDD1F24            B   159    				ld.lil (ix+24h),de				001229 2A ED 10            B   160    				ld hl,(firstchan_loop_len)
00122C 29                  B   161    				add hl,hl
00122D 5D                  B   162    				ld e,l
00122E 54                  B   163    				ld d,h
00122F 5BDD1F14            B   164    				ld.lil (ix+14h),de				001233 5BDD1F34            B   165    				ld.lil (ix+34h),de				001237                     B   166    no_rt_ch0
                           B   167    				
001237 21 00 11            B   168    				ld hl,secondchan_control
00123A CB46                B   169    				bit 0,(hl)
00123C 28 3A               B   170    				jr z,no_rt_ch1
00123E CB86                B   171    				res 0,(hl)
001240 2A 08 11            B   172    				ld hl,(secondchan_location)
001243 29                  B   173    				add hl,hl
001244 5D                  B   174    				ld e,l
001245 54                  B   175    				ld d,h
001246 5BDD1F40            B   176    				ld.lil (ix+40h),de				00124A 5BDD1F60            B   177    				ld.lil (ix+60h),de				00124E 2A 0C 11            B   178    				ld hl,(secondchan_loop_loc)
001251 29                  B   179    				add hl,hl
001252 5D                  B   180    				ld e,l
001253 54                  B   181    				ld d,h
001254 5BDD1F50            B   182    				ld.lil (ix+50h),de				001258 5BDD1F70            B   183    				ld.lil (ix+70h),de				                           B   184    				
00125C 2A 0A 11            B   185    				ld hl,(secondchan_length)
00125F 29                  B   186    				add hl,hl
001260 5D                  B   187    				ld e,l
001261 54                  B   188    				ld d,h
001262 5BDD1F44            B   189    				ld.lil (ix+44h),de				001266 5BDD1F64            B   190    				ld.lil (ix+64h),de				00126A 2A 0E 11            B   191    				ld hl,(secondchan_loop_len)		00126D 29                  B   192    				add hl,hl
00126E 5D                  B   193    				ld e,l
00126F 54                  B   194    				ld d,h
001270 5BDD1F54            B   195    				ld.lil (ix+54h),de				001274 5BDD1F74            B   196    				ld.lil (ix+74h),de
                           B   197    
001278                     B   198    no_rt_ch1
                           B   199    								
001278 21 21 11            B   200    				ld hl,thirdchan_control
00127B CB46                B   201    				bit 0,(hl)
00127D 28 3A               B   202    				jr z,no_rt_ch2
00127F CB86                B   203    				res 0,(hl)
Zilog eZ80 Macro Assembler Version 4.1 (10060805)02-Feb-11     16:18:35     page:  45


PC     Object              I  Line    Source E:\MY_OWN~1\Coding\EZ80PR~1\Code\PROSEA~1\PROTRA~3\src\Amiga_to_EZ80P_audio.asm
001281 2A 29 11            B   204    				ld hl,(thirdchan_location)
001284 29                  B   205    				add hl,hl
001285 5D                  B   206    				ld e,l
001286 54                  B   207    				ld d,h
001287 5BFD1F00            B   208    				ld.lil (iy),de		
00128B 5BFD1F20            B   209    				ld.lil (iy+20h),de	
00128F 2A 2D 11            B   210    				ld hl,(thirdchan_loop_loc)
001292 29                  B   211    				add hl,hl
001293 5D                  B   212    				ld e,l
001294 54                  B   213    				ld d,h
001295 5BFD1F10            B   214    				ld.lil (iy+10h),de		
001299 5BFD1F30            B   215    				ld.lil (iy+30h),de	
                           B   216    				
00129D 2A 2B 11            B   217    				ld hl,(thirdchan_length)
0012A0 29                  B   218    				add hl,hl
0012A1 5D                  B   219    				ld e,l
0012A2 54                  B   220    				ld d,h
0012A3 5BFD1F04            B   221    				ld.lil (iy+04h),de		
0012A7 5BFD1F24            B   222    				ld.lil (iy+24h),de	
0012AB 2A 2F 11            B   223    				ld hl,(thirdchan_loop_len)
0012AE 29                  B   224    				add hl,hl
0012AF 5D                  B   225    				ld e,l
0012B0 54                  B   226    				ld d,h
0012B1 5BFD1F14            B   227    				ld.lil (iy+14h),de		
0012B5 5BFD1F34            B   228    				ld.lil (iy+34h),de	
0012B9                     B   229    no_rt_ch2
                           B   230    
0012B9 21 42 11            B   231    				ld hl,fourthchan_control
0012BC CB46                B   232    				bit 0,(hl)
0012BE 28 3A               B   233    				jr z,no_rt_ch3
0012C0 CB86                B   234    				res 0,(hl)
0012C2 2A 4A 11            B   235    				ld hl,(fourthchan_location)
0012C5 29                  B   236    				add hl,hl
0012C6 5D                  B   237    				ld e,l
0012C7 54                  B   238    				ld d,h
0012C8 5BFD1F40            B   239    				ld.lil (iy+40h),de		
0012CC 5BFD1F60            B   240    				ld.lil (iy+60h),de	
0012D0 2A 4E 11            B   241    				ld hl,(fourthchan_loop_loc)
0012D3 29                  B   242    				add hl,hl
0012D4 5D                  B   243    				ld e,l
0012D5 54                  B   244    				ld d,h
0012D6 5BFD1F50            B   245    				ld.lil (iy+50h),de		
0012DA 5BFD1F70            B   246    				ld.lil (iy+70h),de	
                           B   247    				
0012DE 2A 4C 11            B   248    				ld hl,(fourthchan_length)
0012E1 29                  B   249    				add hl,hl
0012E2 5D                  B   250    				ld e,l
0012E3 54                  B   251    				ld d,h
0012E4 5BFD1F44            B   252    				ld.lil (iy+44h),de		
0012E8 5BFD1F64            B   253    				ld.lil (iy+64h),de	
0012EC 2A 50 11            B   254    				ld hl,(fourthchan_loop_len)
0012EF 29                  B   255    				add hl,hl
Zilog eZ80 Macro Assembler Version 4.1 (10060805)02-Feb-11     16:18:35     page:  46


PC     Object              I  Line    Source E:\MY_OWN~1\Coding\EZ80PR~1\Code\PROSEA~1\PROTRA~3\src\Amiga_to_EZ80P_audio.asm
0012F0 5D                  B   256    				ld e,l
0012F1 54                  B   257    				ld d,h
0012F2 5BFD1F54            B   258    				ld.lil (iy+54h),de		
0012F6 5BFD1F74            B   259    				ld.lil (iy+74h),de	
0012FA                     B   260    no_rt_ch3
                           B   261    
0012FA 3E00                B   262    				ld a,0h							0012FC 5B320000 F0         B   263    				ld.lil (hw_palette),a			                           B   264    
001301 C9                  B   265    				ret
                           B   266    	
                           B   267    ;----------------------------------------------
                           B   268    ; Table for equivalent EZ80P constants to Amiga
                           B   269    ;----------------------------------------------
                           B   270    ;
                           B   271    ; Formula: (1/48828) / ((1/3579545) * period) *
                           B   272    ;
                           B   273    ; Starts at Amiga period 100, one 16-bit consta
                           B   274    
001302                     B   275    period_conv_table:
                           B   276    
001302 ABBBD0B9 FDB734B6   B   277                    db 0ABh,0BBh,0D0h,0B9h,0FDh,0B7
00130A 74B4BCB2 0CB164AF 
001312 C5AD2DAC 9CAA12A9   B   278                    db 0C5h,0ADh,02Dh,0ACh,09Ch,0AA
00131A 90A714A6 9FA431A3 
001322 C9A167A0 0B9FB59D   B   279                    db 0C9h,0A1h,067h,0A0h,00Bh,09F
00132A 649C199B D4999498 
001332 59972396 F294C593   B   280                    db 059h,097h,023h,096h,0F2h,094
00133A 9E927B91 5C90428F 
001342 2C8E1B8D 0D8C048B   B   281                    db 02Ch,08Eh,01Bh,08Dh,00Dh,08C
00134A FE89FC88 FE870487 
001352 0D861985 29843D83   B   282                    db 00Dh,086h,019h,085h,029h,084
00135A 53826D81 8A80AA7F 
001362 CE7EF47D 1D7D497C   B   283                    db 0CEh,07Eh,0F4h,07Dh,01Dh,07D
00136A 777BA97A DD791479 
001372 4D788977 C7760876   B   284                    db 04Dh,078h,089h,077h,0C7h,076
00137A 4B759074 D8732273 
001382 6F72BD71 0E716070   B   285                    db 06Fh,072h,0BDh,071h,00Eh,071
00138A B56F0C6F 656EBF6D 
001392 1C6D7B6C DB6B3D6B   B   286                    db 01Ch,06Dh,07Bh,06Ch,0DBh,06B
00139A A16A076A 6E69D868 
0013A2 4368AF67 1D678D66   B   287                    db 043h,068h,0AFh,067h,01Dh,067
0013AA FE657165 E6645B64 
0013B2 D3634C63 C6624162   B   288                    db 0D3h,063h,04Ch,063h,0C6h,062
0013BA BE613D61 BC603D60 
0013C2 C05F435F C85E4E5E   B   289                    db 0C0h,05Fh,043h,05Fh,0C8h,05E
0013CA D55D5E5D E85C725C 
0013D2 FE5B8C5B 1A5BA95A   B   290                    db 0FEh,05Bh,08Ch,05Bh,01Ah,05B
0013DA 3A5ACB59 5E59F158 
0013E2 86581B58 B2574A57   B   291                    db 086h,058h,01Bh,058h,0B2h,057
0013EA E2567C56 1656B155 
0013F2 4E55EB54 89542854   B   292                    db 04Eh,055h,0EBh,054h,089h,054
Zilog eZ80 Macro Assembler Version 4.1 (10060805)02-Feb-11     16:18:35     page:  47


PC     Object              I  Line    Source E:\MY_OWN~1\Coding\EZ80PR~1\Code\PROSEA~1\PROTRA~3\src\Amiga_to_EZ80P_audio.asm
0013FA C8536853 0A53AC52 
001402 4F52F351 98513E51   B   293                    db 04Fh,052h,0F3h,051h,098h,051
00140A E4508B50 3350DC4F 
001412 854F2F4F DA4E864E   B   294                    db 085h,04Fh,02Fh,04Fh,0DAh,04E
00141A 324EDF4D 8C4D3B4D 
001422 EA4C994C 4A4CFA4B   B   295                    db 0EAh,04Ch,099h,04Ch,04Ah,04C
00142A AC4B5E4B 114BC54A 
001432 794A2D4A E2499849   B   296                    db 079h,04Ah,02Dh,04Ah,0E2h,049
00143A 4F490649 BD487548 
001442 2E48E747 A1475B47   B   297                    db 02Eh,048h,0E7h,047h,0A1h,047
00144A 1647D146 8D464946 
001452 0646C445 82454045   B   298                    db 006h,046h,0C4h,045h,082h,045
00145A FF44BE44 7E443E44 
001462 FF43C043 82434443   B   299                    db 0FFh,043h,0C0h,043h,082h,043
00146A 0643C942 8C425042 
001472 1442D941 9E416441   B   300                    db 014h,042h,0D9h,041h,09Eh,041
00147A 2941F040 B6407D40 
001482 45400D40 D53F9E3F   B   301                    db 045h,040h,00Dh,040h,0D5h,03F
00148A 673F303F FA3EC43E 
001492 8E3E593E 243EF03D   B   302                    db 08Eh,03Eh,059h,03Eh,024h,03E
00149A BB3D883D 543D213D 
0014A2 EE3CBC3C 8A3C583C   B   303                    db 0EEh,03Ch,0BCh,03Ch,08Ah,03C
0014AA 263CF53B C43B943B 
0014B2 633B333B 043BD43A   B   304                    db 063h,03Bh,033h,03Bh,004h,03B
0014BA A53A763A 483A1A3A 
0014C2 EC39BE39 91396439   B   305                    db 0ECh,039h,0BEh,039h,091h,039
0014CA 37390B39 DE38B238 
0014D2 87385B38 30380538   B   306                    db 087h,038h,05Bh,038h,030h,038
0014DA DA37B037 86375C37 
0014E2 32370937 DF36B636   B   307                    db 032h,037h,009h,037h,0DFh,036
0014EA 8E366536 3D361536 
0014F2 ED35C635 9E357735   B   308                    db 0EDh,035h,0C6h,035h,09Eh,035
0014FA 50352A35 0335DD34 
001502 B7349134 6C344634   B   309                    db 0B7h,034h,091h,034h,06Ch,034
00150A 2134FC33 D733B333 
001512 8E336A33 46332233   B   310                    db 08Eh,033h,06Ah,033h,046h,033
00151A FF32DC32 B8329532 
001522 73325032 2D320B32   B   311                    db 073h,032h,050h,032h,02Dh,032
00152A E931C731 A6318431 
001532 63314131 20310031   B   312                    db 063h,031h,041h,031h,020h,031
00153A DF30BE30 9E307E30 
001542 5E303E30 1E30FF2F   B   313                    db 05Eh,030h,03Eh,030h,01Eh,030
00154A E02FC02F A12F832F 
001552 642F452F 272F092F   B   314                    db 064h,02Fh,045h,02Fh,027h,02F
00155A EA2ECD2E AF2E912E 
001562 742E562E 392E1C2E   B   315                    db 074h,02Eh,056h,02Eh,039h,02E
00156A FF2DE22D C62DA92D 
001572 8D2D702D 542D382D   B   316                    db 08Dh,02Dh,070h,02Dh,054h,02D
00157A 1D2D012D E52CCA2C 
001582 AF2C932C 782C5D2C   B   317                    db 0AFh,02Ch,093h,02Ch,078h,02C
00158A 432C282C 0D2CF32B 
001592 D92BBF2B A52B8B2B   B   318                    db 0D9h,02Bh,0BFh,02Bh,0A5h,02B
Zilog eZ80 Macro Assembler Version 4.1 (10060805)02-Feb-11     16:18:35     page:  48


PC     Object              I  Line    Source E:\MY_OWN~1\Coding\EZ80PR~1\Code\PROSEA~1\PROTRA~3\src\Amiga_to_EZ80P_audio.asm
00159A 712B572B 3E2B242B 
0015A2 0B2BF22A D82ABF2A   B   319                    db 00Bh,02Bh,0F2h,02Ah,0D8h,02A
0015AA A72A8E2A 752A5D2A 
0015B2 442A2C2A 142AFC29   B   320                    db 044h,02Ah,02Ch,02Ah,014h,02A
0015BA E429CC29 B4299C29 
0015C2 85296D29 56293F29   B   321                    db 085h,029h,06Dh,029h,056h,029
0015CA 27291029 F928E328 
0015D2 CC28B528 9F288828   B   322                    db 0CCh,028h,0B5h,028h,09Fh,028
0015DA 72285C28 45282F28 
0015E2 19280328 EE27D827   B   323                    db 019h,028h,003h,028h,0EEh,027
0015EA C227AD27 97278227 
0015F2 6D275827 43272E27   B   324                    db 06Dh,027h,058h,027h,043h,027
0015FA 19270427 EF26DA26 
001602 C626B126 9D268926   B   325                    db 0C6h,026h,0B1h,026h,09Dh,026
00160A 75266026 4C263826 
001612 25261126 FD25E925   B   326                    db 025h,026h,011h,026h,0FDh,025
00161A D625C225 AF259C25 
001622 88257525 62254F25   B   327                    db 088h,025h,075h,025h,062h,025
00162A 3C252925 16250425 
001632 F124DE24 CC24B924   B   328                    db 0F1h,024h,0DEh,024h,0CCh,024
00163A A7249524 83247024 
001642 5E244C24 3A242924   B   329                    db 05Eh,024h,04Ch,024h,03Ah,024
00164A 17240524 F323E223 
001652 D023BF23 AD239C23   B   330                    db 0D0h,023h,0BFh,023h,0ADh,023
00165A 8B237A23 68235723 
001662 46233523 24231423   B   331                    db 046h,023h,035h,023h,024h,023
00166A 0323F222 E222D122 
001672 C122B022 A0228F22   B   332                    db 0C1h,022h,0B0h,022h,0A0h,022
00167A 7F226F22 5F224F22 
001682 3F222F22 1F220F22   B   333                    db 03Fh,022h,02Fh,022h,01Fh,022
00168A FF21EF21 E021D021 
001692 C121B121 A2219221   B   334                    db 0C1h,021h,0B1h,021h,0A2h,021
00169A 83217321 64215521 
0016A2 46213721 28211921   B   335                    db 046h,021h,037h,021h,028h,021
0016AA 0A21FB20 EC20DE20 
0016B2 CF20C020 B220A320   B   336                    db 0CFh,020h,0C0h,020h,0B2h,020
0016BA 94208620 78206920 
0016C2 5B204D20 3E203020   B   337                    db 05Bh,020h,04Dh,020h,03Eh,020
0016CA 22201420 0620F81F 
0016D2 EA1FDC1F CF1FC11F   B   338                    db 0EAh,01Fh,0DCh,01Fh,0CFh,01F
0016DA B31FA51F 981F8A1F 
0016E2 7D1F6F1F 621F541F   B   339                    db 07Dh,01Fh,06Fh,01Fh,062h,01F
0016EA 471F3A1F 2C1F1F1F 
0016F2 121F051F F81EEA1E   B   340                    db 012h,01Fh,005h,01Fh,0F8h,01E
0016FA DD1ED01E C41EB71E 
001702 AA1E9D1E 901E841E   B   341                    db 0AAh,01Eh,09Dh,01Eh,090h,01E
00170A 771E6A1E 5E1E511E 
001712 451E381E 2C1E1F1E   B   342                    db 045h,01Eh,038h,01Eh,02Ch,01E
00171A 131E071E FA1DEE1D 
001722 E21DD61D CA1DBD1D   B   343                    db 0E2h,01Dh,0D6h,01Dh,0CAh,01D
00172A B11DA51D 991D8D1D 
001732 821D761D 6A1D5E1D   B   344                    db 082h,01Dh,076h,01Dh,06Ah,01D
Zilog eZ80 Macro Assembler Version 4.1 (10060805)02-Feb-11     16:18:35     page:  49


PC     Object              I  Line    Source E:\MY_OWN~1\Coding\EZ80PR~1\Code\PROSEA~1\PROTRA~3\src\Amiga_to_EZ80P_audio.asm
00173A 521D471D 3B1D2F1D 
001742 241D181D 0D1D011D   B   345                    db 024h,01Dh,018h,01Dh,00Dh,01D
00174A F61CEA1C DF1CD41C 
001752 C81CBD1C B21CA61C   B   346                    db 0C8h,01Ch,0BDh,01Ch,0B2h,01C
00175A 9B1C901C 851C7A1C 
001762 6F1C641C 591C4E1C   B   347                    db 06Fh,01Ch,064h,01Ch,059h,01C
00176A 431C381C 2D1C221C 
001772 181C0D1C 021CF81B   B   348                    db 018h,01Ch,00Dh,01Ch,002h,01C
00177A ED1BE21B D81BCD1B 
001782 C31BB81B AE1BA31B   B   349                    db 0C3h,01Bh,0B8h,01Bh,0AEh,01B
00178A 991B8E1B 841B7A1B 
001792 6F1B651B 5B1B511B   B   350                    db 06Fh,01Bh,065h,01Bh,05Bh,01B
00179A 471B3C1B 321B281B 
0017A2 1E1B141B 0A1B001B   B   351                    db 01Eh,01Bh,014h,01Bh,00Ah,01B
0017AA F61AEC1A E31AD91A 
0017B2 CF1AC51A BB1AB21A   B   352                    db 0CFh,01Ah,0C5h,01Ah,0BBh,01A
0017BA A81A9E1A 951A8B1A 
0017C2 811A781A 6E1A651A   B   353                    db 081h,01Ah,078h,01Ah,06Eh,01A
0017CA 5B1A521A 481A3F1A 
0017D2 361A2C1A 231A1A1A   B   354                    db 036h,01Ah,02Ch,01Ah,023h,01A
0017DA 101A071A FE19F519 
0017E2 EB19E219 D919D019   B   355                    db 0EBh,019h,0E2h,019h,0D9h,019
0017EA C719BE19 B519AC19 
0017F2 A3199A19 91198819   B   356                    db 0A3h,019h,09Ah,019h,091h,019
0017FA 7F197619 6E196519 
001802 5C195319 4A194219   B   357                    db 05Ch,019h,053h,019h,04Ah,019
00180A 39193019 28191F19 
001812 16190E19 0519FD18   B   358                    db 016h,019h,00Eh,019h,005h,019
00181A F418EC18 E318DB18 
001822 D318CA18 C218B918   B   359                    db 0D3h,018h,0CAh,018h,0C2h,018
00182A B118A918 A0189818 
001832 90188818 80187718   B   360                    db 090h,018h,088h,018h,080h,018
00183A 6F186718 5F185718 
001842 4F184718 3F183718   B   361                    db 04Fh,018h,047h,018h,03Fh,018
00184A 2F182718 1F181718 
001852 0F180718 FF17F717   B   362                    db 00Fh,018h,007h,018h,0FFh,017
00185A F017E817 E017D817 
001862 D017C917 C117B917   B   363                    db 0D0h,017h,0C9h,017h,0C1h,017
00186A B217AA17 A2179B17 
001872 93178C17 84177D17   B   364                    db 093h,017h,08Ch,017h,084h,017
00187A 75176D17 66175F17 
001882 57175017 48174117   B   365                    db 057h,017h,050h,017h,048h,017
00188A 3A173217 2B172417 
001892 1C171517 0E170617   B   366                    db 01Ch,017h,015h,017h,00Eh,017
00189A FF16F816 F116EA16 
0018A2 E316DB16 D416CD16   B   367                    db 0E3h,016h,0DBh,016h,0D4h,016
0018AA C616BF16 B816B116 
0018B2 AA16A316 9C169516   B   368                    db 0AAh,016h,0A3h,016h,09Ch,016
0018BA 8E168716 80167916 
0018C2 72166C16 65165E16   B   369                    db 072h,016h,06Ch,016h,065h,016
0018CA 57165016 49164316 
0018D2 3C163516 2E162816   B   370                    db 03Ch,016h,035h,016h,02Eh,016
Zilog eZ80 Macro Assembler Version 4.1 (10060805)02-Feb-11     16:18:35     page:  50


PC     Object              I  Line    Source E:\MY_OWN~1\Coding\EZ80PR~1\Code\PROSEA~1\PROTRA~3\src\Amiga_to_EZ80P_audio.asm
0018DA 21161A16 14160D16 
0018E2 06160016 F915F315   B   371                    db 006h,016h,000h,016h,0F9h,015
0018EA EC15E615 DF15D915 
0018F2 D215CC15 C515BF15   B   372                    db 0D2h,015h,0CCh,015h,0C5h,015
0018FA B815B215 AB15A515 
001902 9F159815 92158B15   B   373                    db 09Fh,015h,098h,015h,092h,015
00190A 85157F15 79157215 
001912 6C156615 5F155915   B   374                    db 06Ch,015h,066h,015h,05Fh,015
00191A 53154D15 47154015 
001922 3A153415 2E152815   B   375                    db 03Ah,015h,034h,015h,02Eh,015
00192A 22151C15 16151015 
001932 0A150415 FE14F814   B   376                    db 00Ah,015h,004h,015h,0FEh,014
00193A F214EC14 E614E014 
001942 DA14D414 CE14C814   B   377                    db 0DAh,014h,0D4h,014h,0CEh,014
00194A C214BC14 B614B114 
001952 AB14A514 9F149914   B   378                    db 0ABh,014h,0A5h,014h,09Fh,014
00195A 93148E14 88148214 
001962 7C147714 71146B14   B   379                    db 07Ch,014h,077h,014h,071h,014
00196A 66146014 5A145514 
001972 4F144914 44143E14   B   380                    db 04Fh,014h,049h,014h,044h,014
00197A 39143314 2E142814 
001982 22141D14 17141214   B   381                    db 022h,014h,01Dh,014h,017h,014
00198A 0C140714 0114FC13 
001992 F713F113 EC13E613   B   382                    db 0F7h,013h,0F1h,013h,0ECh,013
00199A E113DC13 D613D113 
0019A2 CB13C613 C113       B   383                    db 0CBh,013h,0C6h,013h,0C1h,013
                           B   384    				
                           B   385    				
                           B   386    ;----------------------------------------------
                           B   387    ; EZ80P specific code ends
                           B   388    ;----------------------------------------------
                           B   389    
                           A    93    
                           A    94    ;----------------------------------------------
                           A    95    
                           A    96    ALIGN 2
                           B     0    			include "tune03_pattern.asm"
0019A8                     B     1    music_module:
0019A8 68657220 6E756D62   B     2                    db 068h,065h,072h,020h,06Eh,075
0019B0 6E657373 00000000 
0019B8 00000000 28632920   B     3                    db 000h,000h,000h,000h,028h,063
0019C0 65737472 61796B20 
0019C8 5E207061 7261646F   B     4                    db 05Eh,020h,070h,061h,072h,061
0019D0 78000172 004000DF 
0019D8 0093636F 6D706F73   B     5                    db 000h,093h,063h,06Fh,06Dh,070
0019E0 65642069 6E206120 
0019E8 68757272 79210000   B     6                    db 068h,075h,072h,072h,079h,021
0019F0 2000002A 00002000 
0019F8 00000000 00000000   B     7                    db 000h,000h,000h,000h,000h,000
001A00 00000000 00000000 
001A08 00000000 000013F0   B     8                    db 000h,000h,000h,000h,000h,000
001A10 004001F0 12000000 
Zilog eZ80 Macro Assembler Version 4.1 (10060805)02-Feb-11     16:18:35     page:  51


PC     Object              I  Line    Source E:\MY_OWN~1\Coding\EZ80PR~1\Code\PROSEA~1\PROTRA~3\src\tune03_pattern.asm
001A18 00000000 00000000   B     9                    db 000h,000h,000h,000h,000h,000
001A20 00000000 00000000 
001A28 00000000 00000000   B    10                    db 000h,000h,000h,000h,000h,000
001A30 00000001 00000000 
001A38 00000000 00000000   B    11                    db 000h,000h,000h,000h,000h,000
001A40 00000000 00000000 
001A48 0000180B 0F40002D   B    12                    db 000h,000h,018h,00Bh,00Fh,040
001A50 17DE0000 00000000 
001A58 00000000 00000000   B    13                    db 000h,000h,000h,000h,000h,000
001A60 00000000 00000000 
001A68 00000000 00000001   B    14                    db 000h,000h,000h,000h,000h,000
001A70 00000000 00000000 
001A78 00000000 00000000   B    15                    db 000h,000h,000h,000h,000h,000
001A80 00000000 00000000 
001A88 00000000 00010000   B    16                    db 000h,000h,000h,000h,000h,001
001A90 00000000 00000000 
001A98 00000000 00000000   B    17                    db 000h,000h,000h,000h,000h,000
001AA0 00000000 00000000 
001AA8 00000001 00000000   B    18                    db 000h,000h,000h,001h,000h,000
001AB0 00000000 00000000 
001AB8 00000000 00000000   B    19                    db 000h,000h,000h,000h,000h,000
001AC0 00000000 00000000 
001AC8 00010000 00000000   B    20                    db 000h,001h,000h,000h,000h,000
001AD0 00000000 00000000 
001AD8 00000000 00000000   B    21                    db 000h,000h,000h,000h,000h,000
001AE0 00000000 00000001 
001AE8 00000000 00000000   B    22                    db 000h,000h,000h,000h,000h,000
001AF0 00000000 00000000 
001AF8 00000000 00000000   B    23                    db 000h,000h,000h,000h,000h,000
001B00 00000000 00010000 
001B08 00000000 00000000   B    24                    db 000h,000h,000h,000h,000h,000
001B10 00000000 00000000 
001B18 00000000 00000000   B    25                    db 000h,000h,000h,000h,000h,000
001B20 00000001 00000000 
001B28 00000000 00000000   B    26                    db 000h,000h,000h,000h,000h,000
001B30 00000000 00000000 
001B38 00000000 00000000   B    27                    db 000h,000h,000h,000h,000h,000
001B40 00010000 00000000 
001B48 00000000 00000000   B    28                    db 000h,000h,000h,000h,000h,000
001B50 00000000 00000000 
001B58 00000000 00000001   B    29                    db 000h,000h,000h,000h,000h,000
001B60 00000000 00000000 
001B68 00000000 00000000   B    30                    db 000h,000h,000h,000h,000h,000
001B70 00000000 00000000 
001B78 00000000 00010000   B    31                    db 000h,000h,000h,000h,000h,001
001B80 00000000 00000000 
001B88 00000000 00000000   B    32                    db 000h,000h,000h,000h,000h,000
001B90 00000000 00000000 
001B98 00000001 00000000   B    33                    db 000h,000h,000h,001h,000h,000
001BA0 00000000 00000000 
001BA8 00000000 00000000   B    34                    db 000h,000h,000h,000h,000h,000
001BB0 00000000 00000000 
Zilog eZ80 Macro Assembler Version 4.1 (10060805)02-Feb-11     16:18:35     page:  52


PC     Object              I  Line    Source E:\MY_OWN~1\Coding\EZ80PR~1\Code\PROSEA~1\PROTRA~3\src\tune03_pattern.asm
001BB8 00010000 00000000   B    35                    db 000h,001h,000h,000h,000h,000
001BC0 00000000 00000000 
001BC8 00000000 00000000   B    36                    db 000h,000h,000h,000h,000h,000
001BD0 00000000 00000001 
001BD8 00000000 00000000   B    37                    db 000h,000h,000h,000h,000h,000
001BE0 00000000 00000000 
001BE8 00000000 00000000   B    38                    db 000h,000h,000h,000h,000h,000
001BF0 00000000 00010000 
001BF8 00000000 00000000   B    39                    db 000h,000h,000h,000h,000h,000
001C00 00000000 00000000 
001C08 00000000 00000000   B    40                    db 000h,000h,000h,000h,000h,000
001C10 00000001 00000000 
001C18 00000000 00000000   B    41                    db 000h,000h,000h,000h,000h,000
001C20 00000000 00000000 
001C28 00000000 00000000   B    42                    db 000h,000h,000h,000h,000h,000
001C30 00010000 00000000 
001C38 00000000 00000000   B    43                    db 000h,000h,000h,000h,000h,000
001C40 00000000 00000000 
001C48 00000000 00000001   B    44                    db 000h,000h,000h,000h,000h,000
001C50 00000000 00000000 
001C58 00000000 00000000   B    45                    db 000h,000h,000h,000h,000h,000
001C60 00000000 00000000 
001C68 00000000 00010000   B    46                    db 000h,000h,000h,000h,000h,001
001C70 00000000 00000000 
001C78 00000000 00000000   B    47                    db 000h,000h,000h,000h,000h,000
001C80 00000000 00000000 
001C88 00000001 00000000   B    48                    db 000h,000h,000h,001h,000h,000
001C90 00000000 00000000 
001C98 00000000 00000000   B    49                    db 000h,000h,000h,000h,000h,000
001CA0 00000000 00000000 
001CA8 00010000 00000000   B    50                    db 000h,001h,000h,000h,000h,000
001CB0 00000000 00000000 
001CB8 00000000 00000000   B    51                    db 000h,000h,000h,000h,000h,000
001CC0 00000000 00000001 
001CC8 00000000 00000000   B    52                    db 000h,000h,000h,000h,000h,000
001CD0 00000000 00000000 
001CD8 00000000 00000000   B    53                    db 000h,000h,000h,000h,000h,000
001CE0 00000000 00010000 
001CE8 00000000 00000000   B    54                    db 000h,000h,000h,000h,000h,000
001CF0 00000000 00000000 
001CF8 00000000 00000000   B    55                    db 000h,000h,000h,000h,000h,000
001D00 00000001 00000000 
001D08 00000000 00000000   B    56                    db 000h,000h,000h,000h,000h,000
001D10 00000000 00000000 
001D18 00000000 00000000   B    57                    db 000h,000h,000h,000h,000h,000
001D20 00010000 00000000 
001D28 00000000 00000000   B    58                    db 000h,000h,000h,000h,000h,000
001D30 00000000 00000000 
001D38 00000000 00000001   B    59                    db 000h,000h,000h,000h,000h,000
001D40 00000000 00000000 
001D48 00000000 00000000   B    60                    db 000h,000h,000h,000h,000h,000
001D50 00000000 00000000 
Zilog eZ80 Macro Assembler Version 4.1 (10060805)02-Feb-11     16:18:35     page:  53


PC     Object              I  Line    Source E:\MY_OWN~1\Coding\EZ80PR~1\Code\PROSEA~1\PROTRA~3\src\tune03_pattern.asm
001D58 00000000 0001157F   B    61                    db 000h,000h,000h,000h,000h,001
001D60 05060000 01020102 
001D68 00000304 03040708   B    62                    db 000h,000h,003h,004h,003h,004
001D70 0000090A 0B000000 
001D78 00000000 00000000   B    63                    db 000h,000h,000h,000h,000h,000
001D80 00000000 00000000 
001D88 00000000 00000000   B    64                    db 000h,000h,000h,000h,000h,000
001D90 00000000 00000000 
001D98 00000000 00000000   B    65                    db 000h,000h,000h,000h,000h,000
001DA0 00000000 00000000 
001DA8 00000000 00000000   B    66                    db 000h,000h,000h,000h,000h,000
001DB0 00000000 00000000 
001DB8 00000000 00000000   B    67                    db 000h,000h,000h,000h,000h,000
001DC0 00000000 00000000 
001DC8 00000000 00000000   B    68                    db 000h,000h,000h,000h,000h,000
001DD0 00000000 00000000 
001DD8 00000000 00000000   B    69                    db 000h,000h,000h,000h,000h,000
001DE0 4D2E4B2E 00FE2000 
001DE8 00000C10 01FC5000   B    70                    db 000h,000h,00Ch,010h,001h,0FC
001DF0 00000000 00000000 
001DF8 00000C10 00000000   B    71                    db 000h,000h,00Ch,010h,000h,000
001E00 00000000 00000C10 
001E08 00000C10 01FC5000   B    72                    db 000h,000h,00Ch,010h,001h,0FC
001E10 00000000 00000000 
001E18 00FE2C10 00000000   B    73                    db 000h,0FEh,02Ch,010h,000h,000
001E20 00000000 00FE23F0 
001E28 00000C10 00FE1000   B    74                    db 000h,000h,00Ch,010h,000h,0FE
001E30 00FE3058 00000000 
001E38 00000C10 00000C00   B    75                    db 000h,000h,00Ch,010h,000h,000
001E40 00000058 00000C10 
001E48 00000C10 01FC5000   B    76                    db 000h,000h,00Ch,010h,001h,0FC
001E50 00000C00 00000000 
001E58 00FE2C10 00000000   B    77                    db 000h,0FEh,02Ch,010h,000h,000
001E60 00000000 011D23F0 
001E68 00000C10 01FC5000   B    78                    db 000h,000h,00Ch,010h,001h,0FC
001E70 00000000 00000000 
001E78 00000C10 00000000   B    79                    db 000h,000h,00Ch,010h,000h,000
001E80 00000000 00000C10 
001E88 00000C10 01FC5000   B    80                    db 000h,000h,00Ch,010h,001h,0FC
001E90 00000000 00000000 
001E98 011D2C10 00000000   B    81                    db 001h,01Dh,02Ch,010h,000h,000
001EA0 00000000 00FE23F0 
001EA8 00000C10 00FE1000   B    82                    db 000h,000h,00Ch,010h,000h,0FE
001EB0 00FE3058 00000C10 
001EB8 00000C10 00000C00   B    83                    db 000h,000h,00Ch,010h,000h,000
001EC0 00000058 014023F0 
001EC8 00000C10 01FC5000   B    84                    db 000h,000h,00Ch,010h,001h,0FC
001ED0 00000C00 00000000 
001ED8 00FE2C10 00000000   B    85                    db 000h,0FEh,02Ch,010h,000h,000
001EE0 00000000 00000000 
001EE8 00000C10 02805000   B    86                    db 000h,000h,00Ch,010h,002h,080
001EF0 00000000 00000C10 
Zilog eZ80 Macro Assembler Version 4.1 (10060805)02-Feb-11     16:18:35     page:  54


PC     Object              I  Line    Source E:\MY_OWN~1\Coding\EZ80PR~1\Code\PROSEA~1\PROTRA~3\src\tune03_pattern.asm
001EF8 01402C10 00000000   B    87                    db 001h,040h,02Ch,010h,000h,000
001F00 00000000 00000000 
001F08 00000C10 02805000   B    88                    db 000h,000h,00Ch,010h,002h,080
001F10 00000000 00000000 
001F18 00000C10 00000000   B    89                    db 000h,000h,00Ch,010h,000h,000
001F20 00000000 014023F0 
001F28 00000C10 00FE1000   B    90                    db 000h,000h,00Ch,010h,000h,0FE
001F30 01403059 00000000 
001F38 00000C10 00000C00   B    91                    db 000h,000h,00Ch,010h,000h,000
001F40 00000059 00000C10 
001F48 00000C10 02805000   B    92                    db 000h,000h,00Ch,010h,002h,080
001F50 00000C00 00000000 
001F58 01402C10 00000000   B    93                    db 001h,040h,02Ch,010h,000h,000
001F60 00000000 011D23F0 
001F68 00000C10 02805000   B    94                    db 000h,000h,00Ch,010h,002h,080
001F70 00000000 00000000 
001F78 00000C10 00000000   B    95                    db 000h,000h,00Ch,010h,000h,000
001F80 00000000 00000C10 
001F88 00000C10 02805000   B    96                    db 000h,000h,00Ch,010h,002h,080
001F90 00000000 00000000 
001F98 011D2C10 00000000   B    97                    db 001h,01Dh,02Ch,010h,000h,000
001FA0 00000000 00BE23F0 
001FA8 00000C10 00FE1000   B    98                    db 000h,000h,00Ch,010h,000h,0FE
001FB0 01403059 00000000 
001FB8 00000C10 00000C00   B    99                    db 000h,000h,00Ch,010h,000h,000
001FC0 00000059 00000C10 
001FC8 00000C10 02805000   B   100                    db 000h,000h,00Ch,010h,002h,080
001FD0 00000C00 00000000 
001FD8 00BE2C10 00000000   B   101                    db 000h,0BEh,02Ch,010h,000h,000
001FE0 00000000 00D623F0 
001FE8 00000C10 01AC5000   B   102                    db 000h,000h,00Ch,010h,001h,0AC
001FF0 00000000 00000000 
001FF8 00000C10 00000000   B   103                    db 000h,000h,00Ch,010h,000h,000
002000 00000000 00000C10 
002008 00000C10 01AC5000   B   104                    db 000h,000h,00Ch,010h,001h,0AC
002010 00000000 00000000 
002018 00D62C10 00000000   B   105                    db 000h,0D6h,02Ch,010h,000h,000
002020 00000000 00D623F0 
002028 00000C10 00FE1000   B   106                    db 000h,000h,00Ch,010h,000h,0FE
002030 00D63059 00000000 
002038 00000C10 00000C00   B   107                    db 000h,000h,00Ch,010h,000h,000
002040 00000059 00000C10 
002048 00000C10 01AC5000   B   108                    db 000h,000h,00Ch,010h,001h,0AC
002050 00000C00 00000000 
002058 00D62C10 00000000   B   109                    db 000h,0D6h,02Ch,010h,000h,000
002060 00000000 00FE23F0 
002068 00000C10 01AC5000   B   110                    db 000h,000h,00Ch,010h,001h,0AC
002070 00000000 00000C10 
002078 00000C10 00000000   B   111                    db 000h,000h,00Ch,010h,000h,000
002080 00000000 00FE23F0 
002088 00000C10 01AC5000   B   112                    db 000h,000h,00Ch,010h,001h,0AC
002090 00000000 00000C10 
Zilog eZ80 Macro Assembler Version 4.1 (10060805)02-Feb-11     16:18:35     page:  55


PC     Object              I  Line    Source E:\MY_OWN~1\Coding\EZ80PR~1\Code\PROSEA~1\PROTRA~3\src\tune03_pattern.asm
002098 00FE2C10 00000000   B   113                    db 000h,0FEh,02Ch,010h,000h,000
0020A0 00000000 00D623F0 
0020A8 00000C10 00FE1000   B   114                    db 000h,000h,00Ch,010h,000h,0FE
0020B0 00D63059 00000C10 
0020B8 00FE2C10 00000C00   B   115                    db 000h,0FEh,02Ch,010h,000h,000
0020C0 00000059 011D23F0 
0020C8 00000C10 01AC5000   B   116                    db 000h,000h,00Ch,010h,001h,0AC
0020D0 00000C00 00000000 
0020D8 00D62C10 00000000   B   117                    db 000h,0D6h,02Ch,010h,000h,000
0020E0 00000000 00000000 
0020E8 00000C10 023A5000   B   118                    db 000h,000h,00Ch,010h,002h,03A
0020F0 00000000 00000000 
0020F8 011D2C10 00000000   B   119                    db 001h,01Dh,02Ch,010h,000h,000
002100 00000000 00000C10 
002108 00000C10 023A5000   B   120                    db 000h,000h,00Ch,010h,002h,03A
002110 00000000 00000000 
002118 00000C10 00000000   B   121                    db 000h,000h,00Ch,010h,000h,000
002120 00000000 011D23F0 
002128 00000C10 00FE1000   B   122                    db 000h,000h,00Ch,010h,000h,0FE
002130 011D3059 011D2C10 
002138 00000000 00000C00   B   123                    db 000h,000h,000h,000h,000h,000
002140 00000059 014023F0 
002148 011D2C10 023A5000   B   124                    db 001h,01Dh,02Ch,010h,002h,03A
002150 00000C00 011D2C10 
002158 00000C10 00000000   B   125                    db 000h,000h,00Ch,010h,000h,000
002160 00000000 011D23F0 
002168 01402C10 023A5000   B   126                    db 001h,040h,02Ch,010h,002h,03A
002170 00000000 01402C10 
002178 00000C10 00000000   B   127                    db 000h,000h,00Ch,010h,000h,000
002180 00000000 014023F0 
002188 011D2C10 023A5000   B   128                    db 001h,01Dh,02Ch,010h,002h,03A
002190 00000000 011D2C10 
002198 00000C10 00000000   B   129                    db 000h,000h,00Ch,010h,000h,000
0021A0 00000000 017D23F0 
0021A8 01402C10 00FE1000   B   130                    db 001h,040h,02Ch,010h,000h,0FE
0021B0 011D3059 01402C10 
0021B8 00000C10 00000C00   B   131                    db 000h,000h,00Ch,010h,000h,000
0021C0 00000059 01AC23F0 
0021C8 017D2C10 023A5000   B   132                    db 001h,07Dh,02Ch,010h,002h,03A
0021D0 00000C00 017D2C10 
0021D8 00000C10 00000000   B   133                    db 000h,000h,00Ch,010h,000h,000
0021E0 00000000 017D2000 
0021E8 00000C10 01FC5000   B   134                    db 000h,000h,00Ch,010h,001h,0FC
0021F0 00000000 00000000 
0021F8 00000C10 00000000   B   135                    db 000h,000h,00Ch,010h,000h,000
002200 00000000 00000000 
002208 00000C10 01FC5000   B   136                    db 000h,000h,00Ch,010h,001h,0FC
002210 00000000 00000000 
002218 017D2C10 00000000   B   137                    db 001h,07Dh,02Ch,010h,000h,000
002220 00000000 00000000 
002228 00000C10 00FE1000   B   138                    db 000h,000h,00Ch,010h,000h,0FE
002230 00FE3058 00000000 
Zilog eZ80 Macro Assembler Version 4.1 (10060805)02-Feb-11     16:18:35     page:  56


PC     Object              I  Line    Source E:\MY_OWN~1\Coding\EZ80PR~1\Code\PROSEA~1\PROTRA~3\src\tune03_pattern.asm
002238 00000C10 00000C00   B   139                    db 000h,000h,00Ch,010h,000h,000
002240 00000058 00000000 
002248 00000C10 01FC5000   B   140                    db 000h,000h,00Ch,010h,001h,0FC
002250 00000C00 00000000 
002258 00000C10 00000000   B   141                    db 000h,000h,00Ch,010h,000h,000
002260 00000000 00000000 
002268 00000C10 01FC5000   B   142                    db 000h,000h,00Ch,010h,001h,0FC
002270 00000000 00000000 
002278 00000C10 00000000   B   143                    db 000h,000h,00Ch,010h,000h,000
002280 00000000 015323F0 
002288 00000C10 01FC5000   B   144                    db 000h,000h,00Ch,010h,001h,0FC
002290 00000000 00000000 
002298 00000C10 00000000   B   145                    db 000h,000h,00Ch,010h,000h,000
0022A0 00000000 00000000 
0022A8 00000C10 00FE1000   B   146                    db 000h,000h,00Ch,010h,000h,0FE
0022B0 00FE3058 00000000 
0022B8 01532C10 00000C00   B   147                    db 001h,053h,02Ch,010h,000h,000
0022C0 00000058 014023F0 
0022C8 00000C10 01FC5000   B   148                    db 000h,000h,00Ch,010h,001h,0FC
0022D0 00000C00 00000000 
0022D8 00000C10 00000000   B   149                    db 000h,000h,00Ch,010h,000h,000
0022E0 00000000 00000000 
0022E8 00000C10 02805000   B   150                    db 000h,000h,00Ch,010h,002h,080
0022F0 00000000 00000000 
0022F8 01402C10 00000000   B   151                    db 001h,040h,02Ch,010h,000h,000
002300 00000000 015323F0 
002308 00000C10 02805000   B   152                    db 000h,000h,00Ch,010h,002h,080
002310 00000000 00000000 
002318 00000C10 00000000   B   153                    db 000h,000h,00Ch,010h,000h,000
002320 00000000 017D23F0 
002328 00000C10 00FE1000   B   154                    db 000h,000h,00Ch,010h,000h,0FE
002330 01403059 00000000 
002338 01532C10 00000C00   B   155                    db 001h,053h,02Ch,010h,000h,000
002340 00000059 01AC23F0 
002348 00000C10 02805000   B   156                    db 000h,000h,00Ch,010h,002h,080
002350 00000C00 00000000 
002358 017D2C10 00000000   B   157                    db 001h,07Dh,02Ch,010h,000h,000
002360 00000000 014023F0 
002368 00000C10 02805000   B   158                    db 000h,000h,00Ch,010h,002h,080
002370 00000000 00000000 
002378 01AC2C10 00000000   B   159                    db 001h,0ACh,02Ch,010h,000h,000
002380 00000000 00000000 
002388 00000C10 02805000   B   160                    db 000h,000h,00Ch,010h,002h,080
002390 00000000 00000000 
002398 01402C10 00000000   B   161                    db 001h,040h,02Ch,010h,000h,000
0023A0 00000000 011D23F0 
0023A8 00000C10 00FE1000   B   162                    db 000h,000h,00Ch,010h,000h,0FE
0023B0 01403059 00000000 
0023B8 00000C10 00000C00   B   163                    db 000h,000h,00Ch,010h,000h,000
0023C0 00000059 00000000 
0023C8 00000C10 02805000   B   164                    db 000h,000h,00Ch,010h,002h,080
0023D0 00000C00 00000000 
Zilog eZ80 Macro Assembler Version 4.1 (10060805)02-Feb-11     16:18:35     page:  57


PC     Object              I  Line    Source E:\MY_OWN~1\Coding\EZ80PR~1\Code\PROSEA~1\PROTRA~3\src\tune03_pattern.asm
0023D8 011D2C10 00000000   B   165                    db 001h,01Dh,02Ch,010h,000h,000
0023E0 00000000 00FE23F0 
0023E8 00000C10 01AC5000   B   166                    db 000h,000h,00Ch,010h,001h,0AC
0023F0 00000000 00000000 
0023F8 00000C10 00000000   B   167                    db 000h,000h,00Ch,010h,000h,000
002400 00000000 00000000 
002408 00000C10 01AC5000   B   168                    db 000h,000h,00Ch,010h,001h,0AC
002410 00000000 00000000 
002418 00FE2C10 00000000   B   169                    db 000h,0FEh,02Ch,010h,000h,000
002420 00000000 00000000 
002428 00000C10 00FE1000   B   170                    db 000h,000h,00Ch,010h,000h,0FE
002430 00D63059 00000000 
002438 00000C10 00000C00   B   171                    db 000h,000h,00Ch,010h,000h,000
002440 00000059 00000000 
002448 00000C10 01AC5000   B   172                    db 000h,000h,00Ch,010h,001h,0AC
002450 00000C00 00000000 
002458 00000C10 00000000   B   173                    db 000h,000h,00Ch,010h,000h,000
002460 00000000 00000000 
002468 00000C10 01AC5000   B   174                    db 000h,000h,00Ch,010h,001h,0AC
002470 00000000 00000000 
002478 00000C10 00000000   B   175                    db 000h,000h,00Ch,010h,000h,000
002480 00000000 00D623F0 
002488 00000C10 01AC5000   B   176                    db 000h,000h,00Ch,010h,001h,0AC
002490 00000000 00000C10 
002498 00000C10 00000000   B   177                    db 000h,000h,00Ch,010h,000h,000
0024A0 00000000 00FE23F0 
0024A8 00000C10 00FE1000   B   178                    db 000h,000h,00Ch,010h,000h,0FE
0024B0 00D63059 00000C10 
0024B8 00D62C10 00000C00   B   179                    db 000h,0D6h,02Ch,010h,000h,000
0024C0 00000059 011D23F0 
0024C8 00000C10 01AC5000   B   180                    db 000h,000h,00Ch,010h,001h,0AC
0024D0 00000C00 00000000 
0024D8 00FE2C10 00000000   B   181                    db 000h,0FEh,02Ch,010h,000h,000
0024E0 00000000 00000000 
0024E8 00000C10 023A5000   B   182                    db 000h,000h,00Ch,010h,002h,03A
0024F0 00000000 00000000 
0024F8 011D2C10 00000000   B   183                    db 001h,01Dh,02Ch,010h,000h,000
002500 00000000 00000000 
002508 00000C10 023A5000   B   184                    db 000h,000h,00Ch,010h,002h,03A
002510 00000000 00000000 
002518 00000C10 00000000   B   185                    db 000h,000h,00Ch,010h,000h,000
002520 00000000 011D23F0 
002528 00000C10 00FE1000   B   186                    db 000h,000h,00Ch,010h,000h,0FE
002530 011D3059 011D2C10 
002538 00000C10 00000C00   B   187                    db 000h,000h,00Ch,010h,000h,000
002540 00000059 014023F0 
002548 011D2C10 023A5000   B   188                    db 001h,01Dh,02Ch,010h,002h,03A
002550 00000C00 011D2C10 
002558 00000C10 00000000   B   189                    db 000h,000h,00Ch,010h,000h,000
002560 00000000 011D23F0 
002568 01402C10 023A5000   B   190                    db 001h,040h,02Ch,010h,002h,03A
002570 00000000 01402C10 
Zilog eZ80 Macro Assembler Version 4.1 (10060805)02-Feb-11     16:18:35     page:  58


PC     Object              I  Line    Source E:\MY_OWN~1\Coding\EZ80PR~1\Code\PROSEA~1\PROTRA~3\src\tune03_pattern.asm
002578 00000C10 00000000   B   191                    db 000h,000h,00Ch,010h,000h,000
002580 00000000 014023F0 
002588 011D2C10 023A5000   B   192                    db 001h,01Dh,02Ch,010h,002h,03A
002590 00000000 011D2C10 
002598 00000C10 00000000   B   193                    db 000h,000h,00Ch,010h,000h,000
0025A0 00000000 017D23F0 
0025A8 01402C10 00FE1000   B   194                    db 001h,040h,02Ch,010h,000h,0FE
0025B0 011D3059 01402C10 
0025B8 00000C10 00000C00   B   195                    db 000h,000h,00Ch,010h,000h,000
0025C0 00000059 01AC23F0 
0025C8 017D2C10 023A5000   B   196                    db 001h,07Dh,02Ch,010h,002h,03A
0025D0 00000C00 017D2C10 
0025D8 00000C10 00000000   B   197                    db 000h,000h,00Ch,010h,000h,000
0025E0 00000000 017D2000 
0025E8 00000C10 01FC5000   B   198                    db 000h,000h,00Ch,010h,001h,0FC
0025F0 00000000 00000000 
0025F8 00000C10 00000000   B   199                    db 000h,000h,00Ch,010h,000h,000
002600 00000000 00000000 
002608 00000C10 01FC5000   B   200                    db 000h,000h,00Ch,010h,001h,0FC
002610 00000000 00000000 
002618 017D2C10 00000000   B   201                    db 001h,07Dh,02Ch,010h,000h,000
002620 00000000 00000000 
002628 00000C10 00FE1000   B   202                    db 000h,000h,00Ch,010h,000h,0FE
002630 00FE3058 00000000 
002638 00000C10 00000C00   B   203                    db 000h,000h,00Ch,010h,000h,000
002640 00000058 00000000 
002648 00000C10 01FC5000   B   204                    db 000h,000h,00Ch,010h,001h,0FC
002650 00000C00 00000000 
002658 00000C10 00000000   B   205                    db 000h,000h,00Ch,010h,000h,000
002660 00000000 00000000 
002668 00000C10 01FC5000   B   206                    db 000h,000h,00Ch,010h,001h,0FC
002670 00000000 00000000 
002678 00000C10 00000000   B   207                    db 000h,000h,00Ch,010h,000h,000
002680 00000000 015323F0 
002688 00000C10 01FC5000   B   208                    db 000h,000h,00Ch,010h,001h,0FC
002690 00000000 00000000 
002698 00000C10 00000000   B   209                    db 000h,000h,00Ch,010h,000h,000
0026A0 00000000 00000000 
0026A8 00000C10 00FE1000   B   210                    db 000h,000h,00Ch,010h,000h,0FE
0026B0 00FE3058 00000000 
0026B8 01532C10 00000C00   B   211                    db 001h,053h,02Ch,010h,000h,000
0026C0 00000058 01E023F0 
0026C8 00000C10 01FC5000   B   212                    db 000h,000h,00Ch,010h,001h,0FC
0026D0 00000C00 00000000 
0026D8 00000C10 00000000   B   213                    db 000h,000h,00Ch,010h,000h,000
0026E0 00000000 00000000 
0026E8 00000C10 02805000   B   214                    db 000h,000h,00Ch,010h,002h,080
0026F0 00000000 00000000 
0026F8 01E02C10 00000000   B   215                    db 001h,0E0h,02Ch,010h,000h,000
002700 00000000 00000000 
002708 00000C10 02805000   B   216                    db 000h,000h,00Ch,010h,002h,080
002710 00000000 00000000 
Zilog eZ80 Macro Assembler Version 4.1 (10060805)02-Feb-11     16:18:35     page:  59


PC     Object              I  Line    Source E:\MY_OWN~1\Coding\EZ80PR~1\Code\PROSEA~1\PROTRA~3\src\tune03_pattern.asm
002718 00000C10 00000000   B   217                    db 000h,000h,00Ch,010h,000h,000
002720 00000000 00000000 
002728 00000C10 00FE1000   B   218                    db 000h,000h,00Ch,010h,000h,0FE
002730 01403059 00000000 
002738 00000C10 00000C00   B   219                    db 000h,000h,00Ch,010h,000h,000
002740 00000059 00000000 
002748 00000C10 02805000   B   220                    db 000h,000h,00Ch,010h,002h,080
002750 00000C00 00000000 
002758 00000C10 00000000   B   221                    db 000h,000h,00Ch,010h,000h,000
002760 00000000 00000000 
002768 00000C10 02805000   B   222                    db 000h,000h,00Ch,010h,002h,080
002770 00000000 00000000 
002778 00000C10 00000000   B   223                    db 000h,000h,00Ch,010h,000h,000
002780 00000000 00000000 
002788 00000C10 02805000   B   224                    db 000h,000h,00Ch,010h,002h,080
002790 00000000 00000000 
002798 00000C10 00000000   B   225                    db 000h,000h,00Ch,010h,000h,000
0027A0 00000000 00000000 
0027A8 00000C10 00FE1000   B   226                    db 000h,000h,00Ch,010h,000h,0FE
0027B0 01403059 00000000 
0027B8 00000C10 00000C00   B   227                    db 000h,000h,00Ch,010h,000h,000
0027C0 00000059 00000000 
0027C8 00000C10 02805000   B   228                    db 000h,000h,00Ch,010h,002h,080
0027D0 00000C00 00000000 
0027D8 00000C10 00000000   B   229                    db 000h,000h,00Ch,010h,000h,000
0027E0 00000000 014023F0 
0027E8 00000C10 01AC5000   B   230                    db 000h,000h,00Ch,010h,001h,0AC
0027F0 00000000 00000000 
0027F8 00000C10 00000000   B   231                    db 000h,000h,00Ch,010h,000h,000
002800 00000000 00000000 
002808 00000C10 01AC5000   B   232                    db 000h,000h,00Ch,010h,001h,0AC
002810 00000000 00000000 
002818 01402C10 00000000   B   233                    db 001h,040h,02Ch,010h,000h,000
002820 00000000 00000000 
002828 00000C10 00FE1000   B   234                    db 000h,000h,00Ch,010h,000h,0FE
002830 00D63059 00000000 
002838 00000C10 00000C00   B   235                    db 000h,000h,00Ch,010h,000h,000
002840 00000059 00000000 
002848 00000C10 01AC5000   B   236                    db 000h,000h,00Ch,010h,001h,0AC
002850 00000C00 00000000 
002858 00000C10 00000000   B   237                    db 000h,000h,00Ch,010h,000h,000
002860 00000000 00000000 
002868 00000C10 01AC5000   B   238                    db 000h,000h,00Ch,010h,001h,0AC
002870 00000000 00000000 
002878 00000C10 00000000   B   239                    db 000h,000h,00Ch,010h,000h,000
002880 00000000 00000000 
002888 00000C10 01AC5000   B   240                    db 000h,000h,00Ch,010h,001h,0AC
002890 00000000 00000000 
002898 00000C10 00000000   B   241                    db 000h,000h,00Ch,010h,000h,000
0028A0 00000000 00000000 
0028A8 00000C10 00FE1000   B   242                    db 000h,000h,00Ch,010h,000h,0FE
0028B0 00D63059 00000000 
Zilog eZ80 Macro Assembler Version 4.1 (10060805)02-Feb-11     16:18:35     page:  60


PC     Object              I  Line    Source E:\MY_OWN~1\Coding\EZ80PR~1\Code\PROSEA~1\PROTRA~3\src\tune03_pattern.asm
0028B8 00000C10 00000C00   B   243                    db 000h,000h,00Ch,010h,000h,000
0028C0 00000059 00000000 
0028C8 00000C10 01AC5000   B   244                    db 000h,000h,00Ch,010h,001h,0AC
0028D0 00000C00 00000000 
0028D8 00000C10 00000000   B   245                    db 000h,000h,00Ch,010h,000h,000
0028E0 00000000 01402000 
0028E8 00000C10 023A5000   B   246                    db 000h,000h,00Ch,010h,002h,03A
0028F0 00000000 00000000 
0028F8 00000C10 00000000   B   247                    db 000h,000h,00Ch,010h,000h,000
002900 00000000 00000000 
002908 00000C10 023A5000   B   248                    db 000h,000h,00Ch,010h,002h,03A
002910 00000000 00000000 
002918 01402C10 00000000   B   249                    db 001h,040h,02Ch,010h,000h,000
002920 00000000 01532000 
002928 00000C10 00FE1000   B   250                    db 000h,000h,00Ch,010h,000h,0FE
002930 011D3059 00000000 
002938 00000C10 00000C00   B   251                    db 000h,000h,00Ch,010h,000h,000
002940 00000059 00000000 
002948 00000C10 023A5000   B   252                    db 000h,000h,00Ch,010h,002h,03A
002950 00000C00 00000000 
002958 01532C10 00000000   B   253                    db 001h,053h,02Ch,010h,000h,000
002960 00000000 017D2000 
002968 00000C10 023A5000   B   254                    db 000h,000h,00Ch,010h,002h,03A
002970 00000000 00000000 
002978 00000C10 00000000   B   255                    db 000h,000h,00Ch,010h,000h,000
002980 00000000 00000000 
002988 00000C10 023A5000   B   256                    db 000h,000h,00Ch,010h,002h,03A
002990 00000000 00000000 
002998 017D2C10 00000000   B   257                    db 001h,07Dh,02Ch,010h,000h,000
0029A0 00000000 01AC2000 
0029A8 00000C10 00FE1000   B   258                    db 000h,000h,00Ch,010h,000h,0FE
0029B0 011D3059 00000000 
0029B8 00000C10 00000C00   B   259                    db 000h,000h,00Ch,010h,000h,000
0029C0 00000059 00000000 
0029C8 00000C10 023A5000   B   260                    db 000h,000h,00Ch,010h,002h,03A
0029D0 00000C00 00000000 
0029D8 01AC2C10 00000000   B   261                    db 001h,0ACh,02Ch,010h,000h,000
0029E0 00000000 00D62000 
0029E8 00000C10 01AC5000   B   262                    db 000h,000h,00Ch,010h,001h,0AC
0029F0 00D63058 00000000 
0029F8 00000C10 00000000   B   263                    db 000h,000h,00Ch,010h,000h,000
002A00 00000058 00000000 
002A08 00000C10 01AC5000   B   264                    db 000h,000h,00Ch,010h,001h,0AC
002A10 00000058 00000000 
002A18 00D62C10 00000000   B   265                    db 000h,0D6h,02Ch,010h,000h,000
002A20 00000058 00000000 
002A28 00000C10 00FE1000   B   266                    db 000h,000h,00Ch,010h,000h,0FE
002A30 00D63058 00000000 
002A38 00000C10 00000C00   B   267                    db 000h,000h,00Ch,010h,000h,000
002A40 00000058 00000000 
002A48 00000C10 01AC5000   B   268                    db 000h,000h,00Ch,010h,001h,0AC
002A50 00000C00 00000000 
Zilog eZ80 Macro Assembler Version 4.1 (10060805)02-Feb-11     16:18:35     page:  61


PC     Object              I  Line    Source E:\MY_OWN~1\Coding\EZ80PR~1\Code\PROSEA~1\PROTRA~3\src\tune03_pattern.asm
002A58 00000C10 00000000   B   269                    db 000h,000h,00Ch,010h,000h,000
002A60 00000000 00000000 
002A68 00000C10 01AC5000   B   270                    db 000h,000h,00Ch,010h,001h,0AC
002A70 00D63058 00000000 
002A78 00000C10 00000000   B   271                    db 000h,000h,00Ch,010h,000h,000
002A80 00000058 00000000 
002A88 00000C10 01AC5000   B   272                    db 000h,000h,00Ch,010h,001h,0AC
002A90 00000058 00000000 
002A98 00000C10 00000000   B   273                    db 000h,000h,00Ch,010h,000h,000
002AA0 00000058 00000000 
002AA8 00000C10 00FE1000   B   274                    db 000h,000h,00Ch,010h,000h,0FE
002AB0 00D63058 00000000 
002AB8 00000C10 00000C00   B   275                    db 000h,000h,00Ch,010h,000h,000
002AC0 00000058 00000000 
002AC8 00000C10 01AC5000   B   276                    db 000h,000h,00Ch,010h,001h,0AC
002AD0 00000C00 00000000 
002AD8 00000C10 00000000   B   277                    db 000h,000h,00Ch,010h,000h,000
002AE0 00000000 00CA2000 
002AE8 00000C10 021A5000   B   278                    db 000h,000h,00Ch,010h,002h,01A
002AF0 010D3059 00000000 
002AF8 00000C10 00000000   B   279                    db 000h,000h,00Ch,010h,000h,000
002B00 00000059 00CA2000 
002B08 00000C10 021A5000   B   280                    db 000h,000h,00Ch,010h,002h,01A
002B10 00000059 00000000 
002B18 00CA2C10 00000000   B   281                    db 000h,0CAh,02Ch,010h,000h,000
002B20 00000059 00D62000 
002B28 00000C10 00FE1000   B   282                    db 000h,000h,00Ch,010h,000h,0FE
002B30 010D3059 00000000 
002B38 00CA2C10 00000C00   B   283                    db 000h,0CAh,02Ch,010h,000h,000
002B40 00000059 00000000 
002B48 00000C10 021A5000   B   284                    db 000h,000h,00Ch,010h,002h,01A
002B50 00000C00 00000000 
002B58 00D62C10 00000000   B   285                    db 000h,0D6h,02Ch,010h,000h,000
002B60 00000000 00F023F0 
002B68 00000C10 021A5000   B   286                    db 000h,000h,00Ch,010h,002h,01A
002B70 010D3059 00000000 
002B78 00000C10 00000000   B   287                    db 000h,000h,00Ch,010h,000h,000
002B80 00000059 00000000 
002B88 00000C10 021A5000   B   288                    db 000h,000h,00Ch,010h,002h,01A
002B90 00000059 00000000 
002B98 00F02C10 00000000   B   289                    db 000h,0F0h,02Ch,010h,000h,000
002BA0 00000059 010D23F0 
002BA8 00000C10 00FE1000   B   290                    db 000h,000h,00Ch,010h,000h,0FE
002BB0 010D3059 00000000 
002BB8 00000C10 00000C00   B   291                    db 000h,000h,00Ch,010h,000h,000
002BC0 00000059 00F02000 
002BC8 00000C10 021A5000   B   292                    db 000h,000h,00Ch,010h,002h,01A
002BD0 00000C00 00000000 
002BD8 010D2C10 00000000   B   293                    db 001h,00Dh,02Ch,010h,000h,000
002BE0 00000000 00000000 
002BE8 00000C10 01685000   B   294                    db 000h,000h,00Ch,010h,001h,068
002BF0 01683059 00000000 
Zilog eZ80 Macro Assembler Version 4.1 (10060805)02-Feb-11     16:18:35     page:  62


PC     Object              I  Line    Source E:\MY_OWN~1\Coding\EZ80PR~1\Code\PROSEA~1\PROTRA~3\src\tune03_pattern.asm
002BF8 00F02C10 00000000   B   295                    db 000h,0F0h,02Ch,010h,000h,000
002C00 00000059 00B423F0 
002C08 00000C10 01685000   B   296                    db 000h,000h,00Ch,010h,001h,068
002C10 00000059 00000000 
002C18 00000C10 00000000   B   297                    db 000h,000h,00Ch,010h,000h,000
002C20 00000059 00000000 
002C28 00000C10 00FE1000   B   298                    db 000h,000h,00Ch,010h,000h,0FE
002C30 01683059 00000000 
002C38 00B42C10 00000C00   B   299                    db 000h,0B4h,02Ch,010h,000h,000
002C40 00000059 00B42000 
002C48 00000C10 01685000   B   300                    db 000h,000h,00Ch,010h,001h,068
002C50 00000C00 00000000 
002C58 00000C10 00000000   B   301                    db 000h,000h,00Ch,010h,000h,000
002C60 00000000 00F023F0 
002C68 00000C10 01685000   B   302                    db 000h,000h,00Ch,010h,001h,068
002C70 01683059 00000000 
002C78 00B42C10 00000000   B   303                    db 000h,0B4h,02Ch,010h,000h,000
002C80 00000059 00000000 
002C88 00000C10 01685000   B   304                    db 000h,000h,00Ch,010h,001h,068
002C90 00000059 00000000 
002C98 00F02C10 00000000   B   305                    db 000h,0F0h,02Ch,010h,000h,000
002CA0 00000059 010D23F0 
002CA8 00000C10 00FE1000   B   306                    db 000h,000h,00Ch,010h,000h,0FE
002CB0 01683059 00000000 
002CB8 00000C10 00000C00   B   307                    db 000h,000h,00Ch,010h,000h,000
002CC0 00000059 00F023F0 
002CC8 00000C10 01685000   B   308                    db 000h,000h,00Ch,010h,001h,068
002CD0 00000C00 00000000 
002CD8 010D2C10 00000000   B   309                    db 001h,00Dh,02Ch,010h,000h,000
002CE0 00000000 00000000 
002CE8 00000C10 01E05000   B   310                    db 000h,000h,00Ch,010h,001h,0E0
002CF0 00F03059 00000000 
002CF8 00F02C10 00000000   B   311                    db 000h,0F0h,02Ch,010h,000h,000
002D00 00000059 00B423F0 
002D08 00000C10 01E05000   B   312                    db 000h,000h,00Ch,010h,001h,0E0
002D10 00000059 00000000 
002D18 00000C10 00000000   B   313                    db 000h,000h,00Ch,010h,000h,000
002D20 00000059 00000000 
002D28 00000C10 00FE1000   B   314                    db 000h,000h,00Ch,010h,000h,0FE
002D30 00F03059 00000000 
002D38 00B42C10 00000C00   B   315                    db 000h,0B4h,02Ch,010h,000h,000
002D40 00000059 00B42000 
002D48 00000C10 01E05000   B   316                    db 000h,000h,00Ch,010h,001h,0E0
002D50 00000C00 00000000 
002D58 00000C10 00000000   B   317                    db 000h,000h,00Ch,010h,000h,000
002D60 00000000 00F023F0 
002D68 00000C10 01E05000   B   318                    db 000h,000h,00Ch,010h,001h,0E0
002D70 00F03059 00000000 
002D78 00B42C10 00000000   B   319                    db 000h,0B4h,02Ch,010h,000h,000
002D80 00000059 00000000 
002D88 00000C10 01E05000   B   320                    db 000h,000h,00Ch,010h,001h,0E0
002D90 00000059 00000000 
Zilog eZ80 Macro Assembler Version 4.1 (10060805)02-Feb-11     16:18:35     page:  63


PC     Object              I  Line    Source E:\MY_OWN~1\Coding\EZ80PR~1\Code\PROSEA~1\PROTRA~3\src\tune03_pattern.asm
002D98 00F02C10 00000000   B   321                    db 000h,0F0h,02Ch,010h,000h,000
002DA0 00000059 010D23F0 
002DA8 00000C10 00FE1000   B   322                    db 000h,000h,00Ch,010h,000h,0FE
002DB0 00F03059 00000000 
002DB8 00000C10 00000C00   B   323                    db 000h,000h,00Ch,010h,000h,000
002DC0 00000059 00000000 
002DC8 00000C10 01E05000   B   324                    db 000h,000h,00Ch,010h,001h,0E0
002DD0 00000C00 00000000 
002DD8 010D2C10 00000000   B   325                    db 001h,00Dh,02Ch,010h,000h,000
002DE0 00000000 01402000 
002DE8 00000C10 01AC5000   B   326                    db 000h,000h,00Ch,010h,001h,0AC
002DF0 00D63058 00000000 
002DF8 00000C10 00000000   B   327                    db 000h,000h,00Ch,010h,000h,000
002E00 00000058 00000000 
002E08 00000C10 01AC5000   B   328                    db 000h,000h,00Ch,010h,001h,0AC
002E10 00000058 00000000 
002E18 01402C10 00000000   B   329                    db 001h,040h,02Ch,010h,000h,000
002E20 00000058 00000000 
002E28 00000C10 00FE1000   B   330                    db 000h,000h,00Ch,010h,000h,0FE
002E30 00D63058 00000000 
002E38 00000C10 00000C00   B   331                    db 000h,000h,00Ch,010h,000h,000
002E40 00000058 00000000 
002E48 00000C10 01AC5000   B   332                    db 000h,000h,00Ch,010h,001h,0AC
002E50 00000C00 00000000 
002E58 00000C10 00000000   B   333                    db 000h,000h,00Ch,010h,000h,000
002E60 00000000 00000000 
002E68 00000C10 01AC5000   B   334                    db 000h,000h,00Ch,010h,001h,0AC
002E70 00D63058 00000000 
002E78 00000C10 00000000   B   335                    db 000h,000h,00Ch,010h,000h,000
002E80 00000058 00000000 
002E88 00000C10 01AC5000   B   336                    db 000h,000h,00Ch,010h,001h,0AC
002E90 00000058 00000000 
002E98 00000C10 00000000   B   337                    db 000h,000h,00Ch,010h,000h,000
002EA0 00000058 01402000 
002EA8 00000C10 00FE1000   B   338                    db 000h,000h,00Ch,010h,000h,0FE
002EB0 00D63058 00000000 
002EB8 00000C10 00000C00   B   339                    db 000h,000h,00Ch,010h,000h,000
002EC0 00000058 010D2000 
002EC8 00000C10 01AC5000   B   340                    db 000h,000h,00Ch,010h,001h,0AC
002ED0 00000C00 00000000 
002ED8 01402C10 00000000   B   341                    db 001h,040h,02Ch,010h,000h,000
002EE0 00000000 01682000 
002EE8 00000C10 021A5000   B   342                    db 000h,000h,00Ch,010h,002h,01A
002EF0 010D3059 00000000 
002EF8 010D2C10 00000000   B   343                    db 001h,00Dh,02Ch,010h,000h,000
002F00 00000059 00000000 
002F08 00000C10 021A5000   B   344                    db 000h,000h,00Ch,010h,002h,01A
002F10 00000059 00000000 
002F18 01682C10 00000000   B   345                    db 001h,068h,02Ch,010h,000h,000
002F20 00000059 00000000 
002F28 00000C10 00FE1000   B   346                    db 000h,000h,00Ch,010h,000h,0FE
002F30 010D3059 00000000 
Zilog eZ80 Macro Assembler Version 4.1 (10060805)02-Feb-11     16:18:35     page:  64


PC     Object              I  Line    Source E:\MY_OWN~1\Coding\EZ80PR~1\Code\PROSEA~1\PROTRA~3\src\tune03_pattern.asm
002F38 00000C10 00000C00   B   347                    db 000h,000h,00Ch,010h,000h,000
002F40 00000059 00000000 
002F48 00000C10 021A5000   B   348                    db 000h,000h,00Ch,010h,002h,01A
002F50 00000C00 00000000 
002F58 00000C10 00000000   B   349                    db 000h,000h,00Ch,010h,000h,000
002F60 00000000 00B42000 
002F68 00000C10 021A5000   B   350                    db 000h,000h,00Ch,010h,002h,01A
002F70 010D3059 00000000 
002F78 00000C10 00000000   B   351                    db 000h,000h,00Ch,010h,000h,000
002F80 00000059 00000000 
002F88 00000C10 021A5000   B   352                    db 000h,000h,00Ch,010h,002h,01A
002F90 00000059 00000000 
002F98 00B42C10 00000000   B   353                    db 000h,0B4h,02Ch,010h,000h,000
002FA0 00000059 00000000 
002FA8 00000C10 00FE1000   B   354                    db 000h,000h,00Ch,010h,000h,0FE
002FB0 010D3059 00000000 
002FB8 00000C10 00000C00   B   355                    db 000h,000h,00Ch,010h,000h,000
002FC0 00000059 00000000 
002FC8 00000C10 021A5000   B   356                    db 000h,000h,00Ch,010h,002h,01A
002FD0 00000C00 00000000 
002FD8 00000C10 00000000   B   357                    db 000h,000h,00Ch,010h,000h,000
002FE0 00000000 00872000 
002FE8 00000C10 01685000   B   358                    db 000h,000h,00Ch,010h,001h,068
002FF0 01683059 00000000 
002FF8 00000C10 00000000   B   359                    db 000h,000h,00Ch,010h,000h,000
003000 00000059 00000000 
003008 00000C10 01685000   B   360                    db 000h,000h,00Ch,010h,001h,068
003010 00000059 00000000 
003018 00872C10 00000000   B   361                    db 000h,087h,02Ch,010h,000h,000
003020 00000059 00000000 
003028 00000C10 00FE1000   B   362                    db 000h,000h,00Ch,010h,000h,0FE
003030 01683059 00000000 
003038 00000C10 00000C00   B   363                    db 000h,000h,00Ch,010h,000h,000
003040 00000059 00000000 
003048 00000C10 01685000   B   364                    db 000h,000h,00Ch,010h,001h,068
003050 00000C00 00000000 
003058 00000C10 00000000   B   365                    db 000h,000h,00Ch,010h,000h,000
003060 00000000 00000000 
003068 00000C10 01685000   B   366                    db 000h,000h,00Ch,010h,001h,068
003070 01683059 00000000 
003078 00000C10 00000000   B   367                    db 000h,000h,00Ch,010h,000h,000
003080 00000059 00000000 
003088 00000C10 01685000   B   368                    db 000h,000h,00Ch,010h,001h,068
003090 00000059 00000000 
003098 00000C10 00000000   B   369                    db 000h,000h,00Ch,010h,000h,000
0030A0 00000059 00000000 
0030A8 00000C10 00FE1000   B   370                    db 000h,000h,00Ch,010h,000h,0FE
0030B0 01683059 00000000 
0030B8 00000C10 00000C00   B   371                    db 000h,000h,00Ch,010h,000h,000
0030C0 00000059 00000000 
0030C8 00000C10 01685000   B   372                    db 000h,000h,00Ch,010h,001h,068
0030D0 00000C00 00000000 
Zilog eZ80 Macro Assembler Version 4.1 (10060805)02-Feb-11     16:18:35     page:  65


PC     Object              I  Line    Source E:\MY_OWN~1\Coding\EZ80PR~1\Code\PROSEA~1\PROTRA~3\src\tune03_pattern.asm
0030D8 00000C10 00000000   B   373                    db 000h,000h,00Ch,010h,000h,000
0030E0 00000000 00872000 
0030E8 00000C10 01E05000   B   374                    db 000h,000h,00Ch,010h,001h,0E0
0030F0 00F03059 00000000 
0030F8 00000C10 00000000   B   375                    db 000h,000h,00Ch,010h,000h,000
003100 00000059 00000000 
003108 00000C10 01E05000   B   376                    db 000h,000h,00Ch,010h,001h,0E0
003110 00000059 00000000 
003118 00872C10 00000000   B   377                    db 000h,087h,02Ch,010h,000h,000
003120 00000059 008F2000 
003128 00000C10 00FE1000   B   378                    db 000h,000h,00Ch,010h,000h,0FE
003130 00F03059 00000000 
003138 00000C10 00000C00   B   379                    db 000h,000h,00Ch,010h,000h,000
003140 00000059 00000000 
003148 00000C10 01E05000   B   380                    db 000h,000h,00Ch,010h,001h,0E0
003150 00000C00 00000000 
003158 008F2C10 00000000   B   381                    db 000h,08Fh,02Ch,010h,000h,000
003160 00000000 00A02000 
003168 00000C10 01E05000   B   382                    db 000h,000h,00Ch,010h,001h,0E0
003170 00F03059 00000000 
003178 00000C10 00000000   B   383                    db 000h,000h,00Ch,010h,000h,000
003180 00000059 00000000 
003188 00000C10 01E05000   B   384                    db 000h,000h,00Ch,010h,001h,0E0
003190 00000059 00000000 
003198 00A02C10 00000000   B   385                    db 000h,0A0h,02Ch,010h,000h,000
0031A0 00000059 00B42000 
0031A8 00000C10 00FE1000   B   386                    db 000h,000h,00Ch,010h,000h,0FE
0031B0 00F03059 00000000 
0031B8 00000C10 00000C00   B   387                    db 000h,000h,00Ch,010h,000h,000
0031C0 00000059 00000000 
0031C8 00000C10 01E05000   B   388                    db 000h,000h,00Ch,010h,001h,0E0
0031D0 00000C00 00000000 
0031D8 00B42C10 00000000   B   389                    db 000h,0B4h,02Ch,010h,000h,000
0031E0 00000000 00000C00 
0031E8 01AC5C00 01AC5C00   B   390                    db 001h,0ACh,05Ch,000h,001h,0AC
0031F0 00000F04 00000000 
0031F8 00000EA1 00000E11   B   391                    db 000h,000h,00Eh,0A1h,000h,000
003200 00000000 00000000 
003208 00000EA1 00000EA1   B   392                    db 000h,000h,00Eh,0A1h,000h,000
003210 00000000 00000000 
003218 00000EA1 00000EA1   B   393                    db 000h,000h,00Eh,0A1h,000h,000
003220 00000000 00000000 
003228 00000EA1 00000EA1   B   394                    db 000h,000h,00Eh,0A1h,000h,000
003230 00000000 00000000 
003238 00000EA1 00000EA1   B   395                    db 000h,000h,00Eh,0A1h,000h,000
003240 00000000 00000000 
003248 00000EA1 00000EA1   B   396                    db 000h,000h,00Eh,0A1h,000h,000
003250 00000000 00000000 
003258 00000EA1 00000EA1   B   397                    db 000h,000h,00Eh,0A1h,000h,000
003260 00000000 00000000 
003268 00000EA1 00000EA1   B   398                    db 000h,000h,00Eh,0A1h,000h,000
003270 00000000 00000000 
Zilog eZ80 Macro Assembler Version 4.1 (10060805)02-Feb-11     16:18:35     page:  66


PC     Object              I  Line    Source E:\MY_OWN~1\Coding\EZ80PR~1\Code\PROSEA~1\PROTRA~3\src\tune03_pattern.asm
003278 00000EA1 00000EA1   B   399                    db 000h,000h,00Eh,0A1h,000h,000
003280 00000000 00000000 
003288 00000EA1 00000EA1   B   400                    db 000h,000h,00Eh,0A1h,000h,000
003290 00000000 00000000 
003298 00000EA1 00000EA1   B   401                    db 000h,000h,00Eh,0A1h,000h,000
0032A0 00000000 00000000 
0032A8 00000EA1 00000EA1   B   402                    db 000h,000h,00Eh,0A1h,000h,000
0032B0 00000000 00000000 
0032B8 00000EA1 00000EA1   B   403                    db 000h,000h,00Eh,0A1h,000h,000
0032C0 00000000 00000000 
0032C8 00000EA1 00000EA1   B   404                    db 000h,000h,00Eh,0A1h,000h,000
0032D0 00000000 00000000 
0032D8 00000EA1 00000EA1   B   405                    db 000h,000h,00Eh,0A1h,000h,000
0032E0 00000000 00000000 
0032E8 00000EA1 00000EA1   B   406                    db 000h,000h,00Eh,0A1h,000h,000
0032F0 00000000 00000000 
0032F8 00000EA1 00000EA1   B   407                    db 000h,000h,00Eh,0A1h,000h,000
003300 00000000 00000000 
003308 00000EA1 00000EA1   B   408                    db 000h,000h,00Eh,0A1h,000h,000
003310 00000000 00000000 
003318 00000EA1 00000EA1   B   409                    db 000h,000h,00Eh,0A1h,000h,000
003320 00000000 00000000 
003328 00000EA1 00000EA1   B   410                    db 000h,000h,00Eh,0A1h,000h,000
003330 00000000 00000000 
003338 00000EA1 00000EA1   B   411                    db 000h,000h,00Eh,0A1h,000h,000
003340 00000000 00000000 
003348 00000EA1 00000EA1   B   412                    db 000h,000h,00Eh,0A1h,000h,000
003350 00000000 00000000 
003358 00000EA1 00000EA1   B   413                    db 000h,000h,00Eh,0A1h,000h,000
003360 00000000 00000000 
003368 00000EA1 00000EA1   B   414                    db 000h,000h,00Eh,0A1h,000h,000
003370 00000000 00000000 
003378 00000EA1 00000EA1   B   415                    db 000h,000h,00Eh,0A1h,000h,000
003380 00000000 00000000 
003388 00000EA1 00000EA1   B   416                    db 000h,000h,00Eh,0A1h,000h,000
003390 00000000 00000000 
003398 00000EA1 00000EA1   B   417                    db 000h,000h,00Eh,0A1h,000h,000
0033A0 00000000 00000000 
0033A8 00000EA1 00000EA1   B   418                    db 000h,000h,00Eh,0A1h,000h,000
0033B0 00000000 00000000 
0033B8 00000EA1 00000EA1   B   419                    db 000h,000h,00Eh,0A1h,000h,000
0033C0 00000000 00000000 
0033C8 00000EA1 00000EA1   B   420                    db 000h,000h,00Eh,0A1h,000h,000
0033D0 00000000 01AC2C00 
0033D8 00000EA1 00000EA1   B   421                    db 000h,000h,00Eh,0A1h,000h,000
0033E0 00000000 00000EA1 
0033E8 00000EA1 00000EA1   B   422                    db 000h,000h,00Eh,0A1h,000h,000
0033F0 00000000 00000EA1 
0033F8 00000EA1 00000EA1   B   423                    db 000h,000h,00Eh,0A1h,000h,000
003400 00000000 00000EA1 
003408 00000EA1 00000EA1   B   424                    db 000h,000h,00Eh,0A1h,000h,000
003410 00000000 00000EA1 
Zilog eZ80 Macro Assembler Version 4.1 (10060805)02-Feb-11     16:18:35     page:  67


PC     Object              I  Line    Source E:\MY_OWN~1\Coding\EZ80PR~1\Code\PROSEA~1\PROTRA~3\src\tune03_pattern.asm
003418 00000EA1 00000EA1   B   425                    db 000h,000h,00Eh,0A1h,000h,000
003420 00000000 00000EA1 
003428 00000EA1 00000EA1   B   426                    db 000h,000h,00Eh,0A1h,000h,000
003430 00000000 00000EA1 
003438 00000EA1 00000EA1   B   427                    db 000h,000h,00Eh,0A1h,000h,000
003440 00000000 00000EA1 
003448 00000EA1 00000EA1   B   428                    db 000h,000h,00Eh,0A1h,000h,000
003450 00000000 00000EA1 
003458 00000EA1 00000EA1   B   429                    db 000h,000h,00Eh,0A1h,000h,000
003460 00000000 00000EA1 
003468 00000EA1 00000EA1   B   430                    db 000h,000h,00Eh,0A1h,000h,000
003470 00000000 00000EA1 
003478 00000EA1 00000EA1   B   431                    db 000h,000h,00Eh,0A1h,000h,000
003480 00000000 00000EA1 
003488 00000EA1 00000EA1   B   432                    db 000h,000h,00Eh,0A1h,000h,000
003490 00000000 00000EA1 
003498 00000EA1 00000EA1   B   433                    db 000h,000h,00Eh,0A1h,000h,000
0034A0 00000000 00000EA1 
0034A8 00000EA1 00000EA1   B   434                    db 000h,000h,00Eh,0A1h,000h,000
0034B0 00000000 00000EA1 
0034B8 00000EA1 00000EA1   B   435                    db 000h,000h,00Eh,0A1h,000h,000
0034C0 00000000 00000EA1 
0034C8 00000EA1 00000EA1   B   436                    db 000h,000h,00Eh,0A1h,000h,000
0034D0 00000000 00000EA1 
0034D8 00000EA1 00000EA1   B   437                    db 000h,000h,00Eh,0A1h,000h,000
0034E0 00000000 00000EA1 
0034E8 00000EA1 00000EA1   B   438                    db 000h,000h,00Eh,0A1h,000h,000
0034F0 00000000 00000EA1 
0034F8 00000EA1 00000EA1   B   439                    db 000h,000h,00Eh,0A1h,000h,000
003500 00000000 00000EA1 
003508 00000EA1 00000EA1   B   440                    db 000h,000h,00Eh,0A1h,000h,000
003510 00000000 00000EA1 
003518 00000EA1 00000EA1   B   441                    db 000h,000h,00Eh,0A1h,000h,000
003520 00000000 00000EA1 
003528 00000EA1 00000EA1   B   442                    db 000h,000h,00Eh,0A1h,000h,000
003530 00000000 00000EA1 
003538 00000EA1 00000EA1   B   443                    db 000h,000h,00Eh,0A1h,000h,000
003540 00000000 00000EA1 
003548 00000EA1 00000EA1   B   444                    db 000h,000h,00Eh,0A1h,000h,000
003550 00000000 00000EA1 
003558 00000EA1 00000EA1   B   445                    db 000h,000h,00Eh,0A1h,000h,000
003560 00000000 00000EA1 
003568 00000EA1 00000EA1   B   446                    db 000h,000h,00Eh,0A1h,000h,000
003570 00000000 00000EA1 
003578 00000EA1 00000EA1   B   447                    db 000h,000h,00Eh,0A1h,000h,000
003580 00000000 00000EA1 
003588 00000EA1 00000EA1   B   448                    db 000h,000h,00Eh,0A1h,000h,000
003590 00000000 00000EA1 
003598 00000EA1 00000EA1   B   449                    db 000h,000h,00Eh,0A1h,000h,000
0035A0 00000000 00000EA1 
0035A8 00000EA1 00000EA1   B   450                    db 000h,000h,00Eh,0A1h,000h,000
0035B0 00000000 00000EA1 
Zilog eZ80 Macro Assembler Version 4.1 (10060805)02-Feb-11     16:18:35     page:  68


PC     Object              I  Line    Source E:\MY_OWN~1\Coding\EZ80PR~1\Code\PROSEA~1\PROTRA~3\src\tune03_pattern.asm
0035B8 00000EA1 00000EA1   B   451                    db 000h,000h,00Eh,0A1h,000h,000
0035C0 00000000 00000EA1 
0035C8 00000EA1 00000EA1   B   452                    db 000h,000h,00Eh,0A1h,000h,000
0035D0 00000000 00000EA1 
0035D8 00000EA1 00000EA1   B   453                    db 000h,000h,00Eh,0A1h,000h,000
0035E0 00000000 00000000 
0035E8 00000EB1 01AC5000   B   454                    db 000h,000h,00Eh,0B1h,001h,0AC
0035F0 00000000 00000000 
0035F8 00000EB1 00000000   B   455                    db 000h,000h,00Eh,0B1h,000h,000
003600 00000000 00000000 
003608 00000EB1 01AC5000   B   456                    db 000h,000h,00Eh,0B1h,001h,0AC
003610 00000000 00000000 
003618 00000EB1 00000000   B   457                    db 000h,000h,00Eh,0B1h,000h,000
003620 00000000 00000000 
003628 00000EB1 00FE1000   B   458                    db 000h,000h,00Eh,0B1h,000h,0FE
003630 00000000 00000000 
003638 00000EB1 00000C00   B   459                    db 000h,000h,00Eh,0B1h,000h,000
003640 00000000 00000000 
003648 00000EB1 01AC5000   B   460                    db 000h,000h,00Eh,0B1h,001h,0AC
003650 00000000 00000000 
003658 00000EB1 00000000   B   461                    db 000h,000h,00Eh,0B1h,000h,000
003660 00000000 00000000 
003668 00000EB1 01AC5000   B   462                    db 000h,000h,00Eh,0B1h,001h,0AC
003670 00000000 00000000 
003678 00000EB1 00000000   B   463                    db 000h,000h,00Eh,0B1h,000h,000
003680 00000000 00000000 
003688 00000EB1 01AC5000   B   464                    db 000h,000h,00Eh,0B1h,001h,0AC
003690 00000000 00000000 
003698 00000EB1 00000000   B   465                    db 000h,000h,00Eh,0B1h,000h,000
0036A0 00000000 00000000 
0036A8 00000EB1 00FE1000   B   466                    db 000h,000h,00Eh,0B1h,000h,0FE
0036B0 00000000 00000000 
0036B8 00000EB1 00000C00   B   467                    db 000h,000h,00Eh,0B1h,000h,000
0036C0 00000000 00000000 
0036C8 00000EB1 01AC5000   B   468                    db 000h,000h,00Eh,0B1h,001h,0AC
0036D0 00000000 00000000 
0036D8 00000EB1 00000000   B   469                    db 000h,000h,00Eh,0B1h,000h,000
0036E0 00000000 00000EB1 
0036E8 021A0EB1 021A5000   B   470                    db 002h,01Ah,00Eh,0B1h,002h,01A
0036F0 00000000 00000EB1 
0036F8 00000EB1 00000000   B   471                    db 000h,000h,00Eh,0B1h,000h,000
003700 00000000 00000EB1 
003708 00000EB1 021A5000   B   472                    db 000h,000h,00Eh,0B1h,002h,01A
003710 00000000 00000EB1 
003718 00000EB1 00000000   B   473                    db 000h,000h,00Eh,0B1h,000h,000
003720 00000000 00000EB1 
003728 00000EB1 00FE1000   B   474                    db 000h,000h,00Eh,0B1h,000h,0FE
003730 00000000 00000EB1 
003738 00000EB1 00000C00   B   475                    db 000h,000h,00Eh,0B1h,000h,000
003740 00000000 00000EB1 
003748 00000EB1 021A5000   B   476                    db 000h,000h,00Eh,0B1h,002h,01A
003750 00000000 00000EB1 
Zilog eZ80 Macro Assembler Version 4.1 (10060805)02-Feb-11     16:18:35     page:  69


PC     Object              I  Line    Source E:\MY_OWN~1\Coding\EZ80PR~1\Code\PROSEA~1\PROTRA~3\src\tune03_pattern.asm
003758 00000EB1 00000000   B   477                    db 000h,000h,00Eh,0B1h,000h,000
003760 00000000 00000EB1 
003768 00000EB1 021A5000   B   478                    db 000h,000h,00Eh,0B1h,002h,01A
003770 00000000 00000EB1 
003778 00000EB1 00000000   B   479                    db 000h,000h,00Eh,0B1h,000h,000
003780 00000000 00000EB1 
003788 00000EB1 021A5000   B   480                    db 000h,000h,00Eh,0B1h,002h,01A
003790 00000000 00000EB1 
003798 00000EB1 00000000   B   481                    db 000h,000h,00Eh,0B1h,000h,000
0037A0 00000000 00000EB1 
0037A8 00000EB1 00FE1000   B   482                    db 000h,000h,00Eh,0B1h,000h,0FE
0037B0 00000000 00000EB1 
0037B8 00000EB1 00000C00   B   483                    db 000h,000h,00Eh,0B1h,000h,000
0037C0 00000000 00000EB1 
0037C8 00000EB1 021A5000   B   484                    db 000h,000h,00Eh,0B1h,002h,01A
0037D0 00000000 00000EB1 
0037D8 00000EB1 00000000   B   485                    db 000h,000h,00Eh,0B1h,000h,000
0037E0 00000000 00000EB1 
0037E8 01680EB1 01685000   B   486                    db 001h,068h,00Eh,0B1h,001h,068
0037F0 00000000 00000EB1 
0037F8 00000EB1 00000000   B   487                    db 000h,000h,00Eh,0B1h,000h,000
003800 00000000 00000EB1 
003808 00000EB1 01685000   B   488                    db 000h,000h,00Eh,0B1h,001h,068
003810 00000000 00000EB1 
003818 00000EB1 00000000   B   489                    db 000h,000h,00Eh,0B1h,000h,000
003820 00000000 00000EB1 
003828 00000EB1 00FE1000   B   490                    db 000h,000h,00Eh,0B1h,000h,0FE
003830 00000000 00000EB1 
003838 00000EB1 00000C00   B   491                    db 000h,000h,00Eh,0B1h,000h,000
003840 00000000 00000EB1 
003848 00000EB1 01685000   B   492                    db 000h,000h,00Eh,0B1h,001h,068
003850 00000000 00000EB1 
003858 00000EB1 00000000   B   493                    db 000h,000h,00Eh,0B1h,000h,000
003860 00000000 00000EB1 
003868 00000EB1 01685000   B   494                    db 000h,000h,00Eh,0B1h,001h,068
003870 00000000 00000EB1 
003878 00000EB1 00000000   B   495                    db 000h,000h,00Eh,0B1h,000h,000
003880 00000000 00000EB1 
003888 00000EB1 01685000   B   496                    db 000h,000h,00Eh,0B1h,001h,068
003890 00000000 00000EB1 
003898 00000EB1 00000000   B   497                    db 000h,000h,00Eh,0B1h,000h,000
0038A0 00000000 00000EB1 
0038A8 00000EB1 00FE1000   B   498                    db 000h,000h,00Eh,0B1h,000h,0FE
0038B0 00000000 00000EB1 
0038B8 00000EB1 00000C00   B   499                    db 000h,000h,00Eh,0B1h,000h,000
0038C0 00000000 00000EB1 
0038C8 00000EB1 01685000   B   500                    db 000h,000h,00Eh,0B1h,001h,068
0038D0 00000000 00000EB1 
0038D8 00000EB1 00000000   B   501                    db 000h,000h,00Eh,0B1h,000h,000
0038E0 00000000 00000EB1 
0038E8 01E00EB1 01E05000   B   502                    db 001h,0E0h,00Eh,0B1h,001h,0E0
0038F0 00000000 00000EB1 
Zilog eZ80 Macro Assembler Version 4.1 (10060805)02-Feb-11     16:18:35     page:  70


PC     Object              I  Line    Source E:\MY_OWN~1\Coding\EZ80PR~1\Code\PROSEA~1\PROTRA~3\src\tune03_pattern.asm
0038F8 00000EB1 00000000   B   503                    db 000h,000h,00Eh,0B1h,000h,000
003900 00000000 00000EB1 
003908 00000EB1 01E05000   B   504                    db 000h,000h,00Eh,0B1h,001h,0E0
003910 00000000 00000EB1 
003918 00000EB1 00000000   B   505                    db 000h,000h,00Eh,0B1h,000h,000
003920 00000000 00000EB1 
003928 00000EB1 00FE1000   B   506                    db 000h,000h,00Eh,0B1h,000h,0FE
003930 00000000 00000EB1 
003938 00000EB1 00000C00   B   507                    db 000h,000h,00Eh,0B1h,000h,000
003940 00000000 00000EB1 
003948 00000EB1 01E05000   B   508                    db 000h,000h,00Eh,0B1h,001h,0E0
003950 00000000 00000EB1 
003958 00000EB1 00000000   B   509                    db 000h,000h,00Eh,0B1h,000h,000
003960 00000000 00000EB1 
003968 00000EB1 01E05000   B   510                    db 000h,000h,00Eh,0B1h,001h,0E0
003970 00000000 00000EB1 
003978 00000EB1 00000000   B   511                    db 000h,000h,00Eh,0B1h,000h,000
003980 00000000 00000EB1 
003988 00000EB1 01E05000   B   512                    db 000h,000h,00Eh,0B1h,001h,0E0
003990 00000000 00000EB1 
003998 00000EB1 00000000   B   513                    db 000h,000h,00Eh,0B1h,000h,000
0039A0 00000000 00000EB1 
0039A8 00000EB1 00FE1000   B   514                    db 000h,000h,00Eh,0B1h,000h,0FE
0039B0 01AC1000 00000EB1 
0039B8 00000EB1 00000C00   B   515                    db 000h,000h,00Eh,0B1h,000h,000
0039C0 00000C00 00000EB1 
0039C8 00000EB1 00FE1000   B   516                    db 000h,000h,00Eh,0B1h,000h,0FE
0039D0 01AC1000 00000EB1 
0039D8 00000EB1 00000C00   B   517                    db 000h,000h,00Eh,0B1h,000h,000
0039E0 00000C00 00A02000 
0039E8 00000000 01AC5000   B   518                    db 000h,000h,000h,000h,001h,0AC
0039F0 00D63058 00000000 
0039F8 00000000 00000000   B   519                    db 000h,000h,000h,000h,000h,000
003A00 00000058 00000000 
003A08 00000000 01AC5000   B   520                    db 000h,000h,000h,000h,001h,0AC
003A10 00000058 00000000 
003A18 00A02C18 00000000   B   521                    db 000h,0A0h,02Ch,018h,000h,000
003A20 00000058 00000000 
003A28 00000000 00FE1000   B   522                    db 000h,000h,000h,000h,000h,0FE
003A30 00D63058 00000000 
003A38 00000000 00000C00   B   523                    db 000h,000h,000h,000h,000h,000
003A40 00000058 00000000 
003A48 00000000 01AC5000   B   524                    db 000h,000h,000h,000h,001h,0AC
003A50 00000C00 00000000 
003A58 00000000 00000000   B   525                    db 000h,000h,000h,000h,000h,000
003A60 00000000 00000000 
003A68 00000000 01AC5000   B   526                    db 000h,000h,000h,000h,001h,0AC
003A70 00D63058 00000000 
003A78 00000000 00000000   B   527                    db 000h,000h,000h,000h,000h,000
003A80 00000058 00000000 
003A88 00000000 01AC5000   B   528                    db 000h,000h,000h,000h,001h,0AC
003A90 00000058 00000000 
Zilog eZ80 Macro Assembler Version 4.1 (10060805)02-Feb-11     16:18:35     page:  71


PC     Object              I  Line    Source E:\MY_OWN~1\Coding\EZ80PR~1\Code\PROSEA~1\PROTRA~3\src\tune03_pattern.asm
003A98 00000000 00000000   B   529                    db 000h,000h,000h,000h,000h,000
003AA0 00000058 00000000 
003AA8 00000000 00FE1000   B   530                    db 000h,000h,000h,000h,000h,0FE
003AB0 00D63058 00000000 
003AB8 00000000 00000C00   B   531                    db 000h,000h,000h,000h,000h,000
003AC0 00000058 00000000 
003AC8 00000000 01AC5000   B   532                    db 000h,000h,000h,000h,001h,0AC
003AD0 00000C00 00000000 
003AD8 00000000 00000000   B   533                    db 000h,000h,000h,000h,000h,000
003AE0 00000000 00000EB1 
003AE8 00000000 021A5000   B   534                    db 000h,000h,000h,000h,002h,01A
003AF0 010D3059 00000EB1 
003AF8 00000000 00000000   B   535                    db 000h,000h,000h,000h,000h,000
003B00 00000059 00000EB1 
003B08 00000000 021A5000   B   536                    db 000h,000h,000h,000h,002h,01A
003B10 00000059 00000EB1 
003B18 00000EB1 00000000   B   537                    db 000h,000h,00Eh,0B1h,000h,000
003B20 00000059 00000EB1 
003B28 00000EB1 00FE1000   B   538                    db 000h,000h,00Eh,0B1h,000h,0FE
003B30 010D3059 00000EB1 
003B38 00000EB1 00000C00   B   539                    db 000h,000h,00Eh,0B1h,000h,000
003B40 00000059 00000EB1 
003B48 00000EB1 021A5000   B   540                    db 000h,000h,00Eh,0B1h,002h,01A
003B50 00000C00 00000EB1 
003B58 00000EB1 00000000   B   541                    db 000h,000h,00Eh,0B1h,000h,000
003B60 00000000 00000EB1 
003B68 00000EB1 021A5000   B   542                    db 000h,000h,00Eh,0B1h,002h,01A
003B70 010D3059 00000EB1 
003B78 00000EB1 00000000   B   543                    db 000h,000h,00Eh,0B1h,000h,000
003B80 00000059 00000EB1 
003B88 00000EB1 021A5000   B   544                    db 000h,000h,00Eh,0B1h,002h,01A
003B90 00000059 00000EB1 
003B98 00000EB1 00000000   B   545                    db 000h,000h,00Eh,0B1h,000h,000
003BA0 00000059 00000EB1 
003BA8 00000EB1 00FE1000   B   546                    db 000h,000h,00Eh,0B1h,000h,0FE
003BB0 010D3059 00000EB1 
003BB8 00000EB1 00000C00   B   547                    db 000h,000h,00Eh,0B1h,000h,000
003BC0 00000059 00000EB1 
003BC8 00000EB1 021A5000   B   548                    db 000h,000h,00Eh,0B1h,002h,01A
003BD0 00000C00 00000EB1 
003BD8 00000EB1 00000000   B   549                    db 000h,000h,00Eh,0B1h,000h,000
003BE0 00000000 00000EB1 
003BE8 00000EB1 01685000   B   550                    db 000h,000h,00Eh,0B1h,001h,068
003BF0 01683059 00000EB1 
003BF8 00000EB1 00000000   B   551                    db 000h,000h,00Eh,0B1h,000h,000
003C00 00000059 00000EB1 
003C08 00000EB1 01685000   B   552                    db 000h,000h,00Eh,0B1h,001h,068
003C10 00000059 00000EB1 
003C18 00000EB1 00000000   B   553                    db 000h,000h,00Eh,0B1h,000h,000
003C20 00000059 00000EB1 
003C28 00000EB1 00FE1000   B   554                    db 000h,000h,00Eh,0B1h,000h,0FE
003C30 01683059 00000EB1 
Zilog eZ80 Macro Assembler Version 4.1 (10060805)02-Feb-11     16:18:35     page:  72


PC     Object              I  Line    Source E:\MY_OWN~1\Coding\EZ80PR~1\Code\PROSEA~1\PROTRA~3\src\tune03_pattern.asm
003C38 00000EB1 00000C00   B   555                    db 000h,000h,00Eh,0B1h,000h,000
003C40 00000059 00000EB1 
003C48 00000EB1 01685000   B   556                    db 000h,000h,00Eh,0B1h,001h,068
003C50 00000C00 00000EB1 
003C58 00000EB1 00000000   B   557                    db 000h,000h,00Eh,0B1h,000h,000
003C60 00000000 00000EB1 
003C68 00000EB1 01685000   B   558                    db 000h,000h,00Eh,0B1h,001h,068
003C70 01683059 00000EB1 
003C78 00000EB1 00000000   B   559                    db 000h,000h,00Eh,0B1h,000h,000
003C80 00000059 00000EB1 
003C88 00000EB1 01685000   B   560                    db 000h,000h,00Eh,0B1h,001h,068
003C90 00000059 00000EB1 
003C98 00000EB1 00000000   B   561                    db 000h,000h,00Eh,0B1h,000h,000
003CA0 00000059 00000EB1 
003CA8 00000EB1 00FE1000   B   562                    db 000h,000h,00Eh,0B1h,000h,0FE
003CB0 01683059 00000EB1 
003CB8 00000EB1 00000C00   B   563                    db 000h,000h,00Eh,0B1h,000h,000
003CC0 00000059 00000EB1 
003CC8 00000EB1 01685000   B   564                    db 000h,000h,00Eh,0B1h,001h,068
003CD0 00000C00 00000EB1 
003CD8 00000EB1 00000000   B   565                    db 000h,000h,00Eh,0B1h,000h,000
003CE0 00000000 00000EB1 
003CE8 00000EB1 01E05000   B   566                    db 000h,000h,00Eh,0B1h,001h,0E0
003CF0 00F03059 00000EB1 
003CF8 00000EB1 00000000   B   567                    db 000h,000h,00Eh,0B1h,000h,000
003D00 00000059 00000EB1 
003D08 00000EB1 01E05000   B   568                    db 000h,000h,00Eh,0B1h,001h,0E0
003D10 00000059 00000EB1 
003D18 00000EB1 00000000   B   569                    db 000h,000h,00Eh,0B1h,000h,000
003D20 00000059 00000EB1 
003D28 00000EB1 00FE1000   B   570                    db 000h,000h,00Eh,0B1h,000h,0FE
003D30 00F03059 00000EB1 
003D38 00000EB1 00000C00   B   571                    db 000h,000h,00Eh,0B1h,000h,000
003D40 00000059 00000EB1 
003D48 00000EB1 01E05000   B   572                    db 000h,000h,00Eh,0B1h,001h,0E0
003D50 00000C00 00000EB1 
003D58 00000EB1 00000000   B   573                    db 000h,000h,00Eh,0B1h,000h,000
003D60 00000000 00000EB1 
003D68 00000EB1 01E05000   B   574                    db 000h,000h,00Eh,0B1h,001h,0E0
003D70 00F03059 00000EB1 
003D78 00000EB1 00000000   B   575                    db 000h,000h,00Eh,0B1h,000h,000
003D80 00000059 00000EB1 
003D88 00000EB1 01E05000   B   576                    db 000h,000h,00Eh,0B1h,001h,0E0
003D90 00000059 00000EB1 
003D98 00000EB1 00000000   B   577                    db 000h,000h,00Eh,0B1h,000h,000
003DA0 00000059 00000EB1 
003DA8 00000EB1 00FE1000   B   578                    db 000h,000h,00Eh,0B1h,000h,0FE
003DB0 00F03059 00000EB1 
003DB8 00000EB1 00000C00   B   579                    db 000h,000h,00Eh,0B1h,000h,000
003DC0 00000059 00000EB1 
003DC8 00000EB1 00FE1000   B   580                    db 000h,000h,00Eh,0B1h,000h,0FE
003DD0 00000C00 00000EB1 
Zilog eZ80 Macro Assembler Version 4.1 (10060805)02-Feb-11     16:18:35     page:  73


PC     Object              I  Line    Source E:\MY_OWN~1\Coding\EZ80PR~1\Code\PROSEA~1\PROTRA~3\src\tune03_pattern.asm
003DD8 00000EB1 00000C00   B   581                    db 000h,000h,00Eh,0B1h,000h,000
003DE0 00000000 00000000 
003DE8 03585E11 03585A02   B   582                    db 003h,058h,05Eh,011h,003h,058
003DF0 00D63058 00000000 
003DF8 00000A04 00000A02   B   583                    db 000h,000h,00Ah,004h,000h,000
003E00 00000058 00000000 
003E08 00000A02 00000A02   B   584                    db 000h,000h,00Ah,002h,000h,000
003E10 00000058 00000000 
003E18 00000A02 00000A02   B   585                    db 000h,000h,00Ah,002h,000h,000
003E20 00000058 00000000 
003E28 00000A02 00000A02   B   586                    db 000h,000h,00Ah,002h,000h,000
003E30 00D63058 00000000 
003E38 00000A02 00000A02   B   587                    db 000h,000h,00Ah,002h,000h,000
003E40 00000058 00000000 
003E48 00000A02 00000A02   B   588                    db 000h,000h,00Ah,002h,000h,000
003E50 00000C00 00000000 
003E58 00000A02 00000A02   B   589                    db 000h,000h,00Ah,002h,000h,000
003E60 00000000 00000000 
003E68 03585E11 03585A02   B   590                    db 003h,058h,05Eh,011h,003h,058
003E70 00D63058 00000000 
003E78 00000A02 00000A02   B   591                    db 000h,000h,00Ah,002h,000h,000
003E80 00000058 00000000 
003E88 00000A02 00000A02   B   592                    db 000h,000h,00Ah,002h,000h,000
003E90 00000058 00000000 
003E98 00000A02 00000A02   B   593                    db 000h,000h,00Ah,002h,000h,000
003EA0 00000058 00000000 
003EA8 00000A02 00000A02   B   594                    db 000h,000h,00Ah,002h,000h,000
003EB0 00D63058 00000000 
003EB8 00000A02 00000A02   B   595                    db 000h,000h,00Ah,002h,000h,000
003EC0 00000058 00000000 
003EC8 00000A02 00000A02   B   596                    db 000h,000h,00Ah,002h,000h,000
003ED0 00000C00 00000000 
003ED8 00000A02 00000A02   B   597                    db 000h,000h,00Ah,002h,000h,000
003EE0 00000000 00000000 
003EE8 021A5E11 021A5A02   B   598                    db 002h,01Ah,05Eh,011h,002h,01A
003EF0 010D3059 00000000 
003EF8 00000A02 00000A02   B   599                    db 000h,000h,00Ah,002h,000h,000
003F00 00000059 00000000 
003F08 00000A02 00000A02   B   600                    db 000h,000h,00Ah,002h,000h,000
003F10 00000059 00000000 
003F18 00000A02 00000A02   B   601                    db 000h,000h,00Ah,002h,000h,000
003F20 00000059 00000000 
003F28 021A5E11 021A5A02   B   602                    db 002h,01Ah,05Eh,011h,002h,01A
003F30 010D3059 00000000 
003F38 00000A02 00000A02   B   603                    db 000h,000h,00Ah,002h,000h,000
003F40 00000059 00000000 
003F48 00000A02 00000A02   B   604                    db 000h,000h,00Ah,002h,000h,000
003F50 00000C00 00000000 
003F58 00000A02 00000A02   B   605                    db 000h,000h,00Ah,002h,000h,000
003F60 00000000 00000000 
003F68 021A5E11 021A5A02   B   606                    db 002h,01Ah,05Eh,011h,002h,01A
003F70 010D3059 00000000 
Zilog eZ80 Macro Assembler Version 4.1 (10060805)02-Feb-11     16:18:35     page:  74


PC     Object              I  Line    Source E:\MY_OWN~1\Coding\EZ80PR~1\Code\PROSEA~1\PROTRA~3\src\tune03_pattern.asm
003F78 00000A02 00000A02   B   607                    db 000h,000h,00Ah,002h,000h,000
003F80 00000059 00000000 
003F88 021A5E11 021A5A02   B   608                    db 002h,01Ah,05Eh,011h,002h,01A
003F90 00000059 00000000 
003F98 00000A02 00000A02   B   609                    db 000h,000h,00Ah,002h,000h,000
003FA0 00000059 00000000 
003FA8 00000A02 00000A02   B   610                    db 000h,000h,00Ah,002h,000h,000
003FB0 010D3059 00000000 
003FB8 00000A02 00000A02   B   611                    db 000h,000h,00Ah,002h,000h,000
003FC0 00000059 00000000 
003FC8 021A5E11 021A5A02   B   612                    db 002h,01Ah,05Eh,011h,002h,01A
003FD0 00000C00 00000000 
003FD8 00000A02 00000A02   B   613                    db 000h,000h,00Ah,002h,000h,000
003FE0 00000000 00000000 
003FE8 02D05E11 02D05A02   B   614                    db 002h,0D0h,05Eh,011h,002h,0D0
003FF0 01683059 00000000 
003FF8 00000A04 00000A02   B   615                    db 000h,000h,00Ah,004h,000h,000
004000 00000059 00000000 
004008 00000A02 00000A02   B   616                    db 000h,000h,00Ah,002h,000h,000
004010 00000059 00000000 
004018 00000A02 00000A02   B   617                    db 000h,000h,00Ah,002h,000h,000
004020 00000059 00000000 
004028 00000A02 00000A02   B   618                    db 000h,000h,00Ah,002h,000h,000
004030 01683059 00000000 
004038 00000A02 00000A02   B   619                    db 000h,000h,00Ah,002h,000h,000
004040 00000059 00000000 
004048 00000A02 00000A02   B   620                    db 000h,000h,00Ah,002h,000h,000
004050 00000C00 00000000 
004058 00000A02 00000A02   B   621                    db 000h,000h,00Ah,002h,000h,000
004060 00000000 00000000 
004068 00000A02 00000A02   B   622                    db 000h,000h,00Ah,002h,000h,000
004070 01683059 00000000 
004078 00000A02 00000A02   B   623                    db 000h,000h,00Ah,002h,000h,000
004080 00000059 00000000 
004088 00000A02 00000A02   B   624                    db 000h,000h,00Ah,002h,000h,000
004090 00000059 00000000 
004098 00000A02 00000A02   B   625                    db 000h,000h,00Ah,002h,000h,000
0040A0 00000059 00000000 
0040A8 00000A02 00000A02   B   626                    db 000h,000h,00Ah,002h,000h,000
0040B0 01683059 00000000 
0040B8 00000A02 00000A02   B   627                    db 000h,000h,00Ah,002h,000h,000
0040C0 00000059 00000000 
0040C8 00000A02 00000A02   B   628                    db 000h,000h,00Ah,002h,000h,000
0040D0 00000C00 00000000 
0040D8 00000A02 00000A02   B   629                    db 000h,000h,00Ah,002h,000h,000
0040E0 00000000 00000000 
0040E8 007F1C18 01E05A02   B   630                    db 000h,07Fh,01Ch,018h,001h,0E0
0040F0 00F03059 00000000 
0040F8 00000202 00000A02   B   631                    db 000h,000h,002h,002h,000h,000
004100 00000059 00000000 
004108 00000EA1 01E05A02   B   632                    db 000h,000h,00Eh,0A1h,001h,0E0
004110 00000059 00000000 
Zilog eZ80 Macro Assembler Version 4.1 (10060805)02-Feb-11     16:18:35     page:  75


PC     Object              I  Line    Source E:\MY_OWN~1\Coding\EZ80PR~1\Code\PROSEA~1\PROTRA~3\src\tune03_pattern.asm
004118 00000202 00000A02   B   633                    db 000h,000h,002h,002h,000h,000
004120 00000059 00000000 
004128 00000EA1 00F05A02   B   634                    db 000h,000h,00Eh,0A1h,000h,0F0
004130 00F03059 00000000 
004138 00000202 00000A02   B   635                    db 000h,000h,002h,002h,000h,000
004140 00000059 00000000 
004148 00000EA1 01E05A02   B   636                    db 000h,000h,00Eh,0A1h,001h,0E0
004150 00000C00 00000000 
004158 00000202 00000A02   B   637                    db 000h,000h,002h,002h,000h,000
004160 00000000 00000000 
004168 00000EA1 00F05A02   B   638                    db 000h,000h,00Eh,0A1h,000h,0F0
004170 00F03059 00000000 
004178 00000202 00000A02   B   639                    db 000h,000h,002h,002h,000h,000
004180 00000059 00000000 
004188 00000EA1 01E05A02   B   640                    db 000h,000h,00Eh,0A1h,001h,0E0
004190 00000059 00000000 
004198 00000202 00000A02   B   641                    db 000h,000h,002h,002h,000h,000
0041A0 00000059 00000000 
0041A8 00000EA1 01AC1A05   B   642                    db 000h,000h,00Eh,0A1h,001h,0AC
0041B0 00F03059 00000000 
0041B8 00000202 00000A05   B   643                    db 000h,000h,002h,002h,000h,000
0041C0 00000059 00000000 
0041C8 00000EA1 01AC1A05   B   644                    db 000h,000h,00Eh,0A1h,001h,0AC
0041D0 00000C00 00000000 
0041D8 00000202 00000A05   B   645                    db 000h,000h,002h,002h,000h,000
0041E0 00000000 00D62000 
0041E8 01403000 01AC5000   B   646                    db 001h,040h,030h,000h,001h,0AC
0041F0 00D63058 00000000 
0041F8 00000C10 00000000   B   647                    db 000h,000h,00Ch,010h,000h,000
004200 00000058 00000C10 
004208 00D633F0 01AC5000   B   648                    db 000h,0D6h,033h,0F0h,001h,0AC
004210 00000058 00000000 
004218 00000C10 00000000   B   649                    db 000h,000h,00Ch,010h,000h,000
004220 00000058 00D623F0 
004228 014033F0 00FE1000   B   650                    db 001h,040h,033h,0F0h,000h,0FE
004230 00D63058 00000000 
004238 00000C10 00000C00   B   651                    db 000h,000h,00Ch,010h,000h,000
004240 00000058 00000C10 
004248 00D633F0 01AC5000   B   652                    db 000h,0D6h,033h,0F0h,001h,0AC
004250 00000C00 00000000 
004258 00000C10 00000000   B   653                    db 000h,000h,00Ch,010h,000h,000
004260 00000000 00F023F0 
004268 014033F0 01AC5000   B   654                    db 001h,040h,033h,0F0h,001h,0AC
004270 00D63058 00000000 
004278 00000C10 00000000   B   655                    db 000h,000h,00Ch,010h,000h,000
004280 00000058 00000C10 
004288 00D633F0 01AC5000   B   656                    db 000h,0D6h,033h,0F0h,001h,0AC
004290 00000058 00000000 
004298 00000C10 00000000   B   657                    db 000h,000h,00Ch,010h,000h,000
0042A0 00000058 00D623F0 
0042A8 014033F0 00FE1000   B   658                    db 001h,040h,033h,0F0h,000h,0FE
0042B0 00D63058 00000C10 
Zilog eZ80 Macro Assembler Version 4.1 (10060805)02-Feb-11     16:18:35     page:  76


PC     Object              I  Line    Source E:\MY_OWN~1\Coding\EZ80PR~1\Code\PROSEA~1\PROTRA~3\src\tune03_pattern.asm
0042B8 00000C10 00000C00   B   659                    db 000h,000h,00Ch,010h,000h,000
0042C0 00000058 010D23F0 
0042C8 00D633F0 01AC5000   B   660                    db 000h,0D6h,033h,0F0h,001h,0AC
0042D0 00000C00 00000000 
0042D8 00000C10 00000000   B   661                    db 000h,000h,00Ch,010h,000h,000
0042E0 00000000 00000000 
0042E8 019433F0 021A5000   B   662                    db 001h,094h,033h,0F0h,002h,01A
0042F0 010D3059 00000C10 
0042F8 00000C10 00000000   B   663                    db 000h,000h,00Ch,010h,000h,000
004300 00000059 00000000 
004308 010D33F0 021A5000   B   664                    db 001h,00Dh,033h,0F0h,002h,01A
004310 00000059 00000000 
004318 00000C10 00000000   B   665                    db 000h,000h,00Ch,010h,000h,000
004320 00000059 010D23F0 
004328 019433F0 00FE1000   B   666                    db 001h,094h,033h,0F0h,000h,0FE
004330 010D3059 00000000 
004338 00000C10 00000C00   B   667                    db 000h,000h,00Ch,010h,000h,000
004340 00000059 00000C10 
004348 010D33F0 021A5000   B   668                    db 001h,00Dh,033h,0F0h,002h,01A
004350 00000C00 00000000 
004358 00000C10 00000000   B   669                    db 000h,000h,00Ch,010h,000h,000
004360 00000000 00F023F0 
004368 019433F0 021A5000   B   670                    db 001h,094h,033h,0F0h,002h,01A
004370 010D3059 00000000 
004378 00000C10 00000000   B   671                    db 000h,000h,00Ch,010h,000h,000
004380 00000059 00000C10 
004388 010D33F0 021A5000   B   672                    db 001h,00Dh,033h,0F0h,002h,01A
004390 00000059 00000000 
004398 00000C10 00000000   B   673                    db 000h,000h,00Ch,010h,000h,000
0043A0 00000059 00A023F0 
0043A8 019433F0 00FE1000   B   674                    db 001h,094h,033h,0F0h,000h,0FE
0043B0 010D3059 00000000 
0043B8 00000C10 00000C00   B   675                    db 000h,000h,00Ch,010h,000h,000
0043C0 00000059 00000C10 
0043C8 010D33F0 021A5000   B   676                    db 001h,00Dh,033h,0F0h,002h,01A
0043D0 00000C00 00000000 
0043D8 00000C10 00000000   B   677                    db 000h,000h,00Ch,010h,000h,000
0043E0 00000000 00B423F0 
0043E8 00B433F0 01685000   B   678                    db 000h,0B4h,033h,0F0h,001h,068
0043F0 01683059 00000000 
0043F8 00000C10 00000000   B   679                    db 000h,000h,00Ch,010h,000h,000
004400 00000059 00000C10 
004408 010D33F0 01685000   B   680                    db 001h,00Dh,033h,0F0h,001h,068
004410 00000059 00000000 
004418 00000C10 00000000   B   681                    db 000h,000h,00Ch,010h,000h,000
004420 00000059 00B423F0 
004428 00B433F0 00FE1000   B   682                    db 000h,0B4h,033h,0F0h,000h,0FE
004430 01683059 00000000 
004438 00000C10 00000C00   B   683                    db 000h,000h,00Ch,010h,000h,000
004440 00000059 00000C10 
004448 010D33F0 01685000   B   684                    db 001h,00Dh,033h,0F0h,001h,068
004450 00000C00 00000000 
Zilog eZ80 Macro Assembler Version 4.1 (10060805)02-Feb-11     16:18:35     page:  77


PC     Object              I  Line    Source E:\MY_OWN~1\Coding\EZ80PR~1\Code\PROSEA~1\PROTRA~3\src\tune03_pattern.asm
004458 00000C10 00000000   B   685                    db 000h,000h,00Ch,010h,000h,000
004460 00000000 00D623F0 
004468 00B433F0 01685000   B   686                    db 000h,0B4h,033h,0F0h,001h,068
004470 01683059 00000C10 
004478 00000C10 00000000   B   687                    db 000h,000h,00Ch,010h,000h,000
004480 00000059 00D623F0 
004488 010D33F0 01685000   B   688                    db 001h,00Dh,033h,0F0h,001h,068
004490 00000059 00000C10 
004498 00000C10 00000000   B   689                    db 000h,000h,00Ch,010h,000h,000
0044A0 00000059 00B423F0 
0044A8 00B433F0 00FE1000   B   690                    db 000h,0B4h,033h,0F0h,000h,0FE
0044B0 01683059 00000C10 
0044B8 00000C10 00000C00   B   691                    db 000h,000h,00Ch,010h,000h,000
0044C0 00000059 00F023F0 
0044C8 010D33F0 01685000   B   692                    db 001h,00Dh,033h,0F0h,001h,068
0044D0 00000C00 00000000 
0044D8 00000C10 00000000   B   693                    db 000h,000h,00Ch,010h,000h,000
0044E0 00000000 00000000 
0044E8 00F033F0 01E05000   B   694                    db 000h,0F0h,033h,0F0h,001h,0E0
0044F0 00F03059 00000000 
0044F8 00000C10 00000000   B   695                    db 000h,000h,00Ch,010h,000h,000
004500 00000059 00000C10 
004508 016833F0 01E05000   B   696                    db 001h,068h,033h,0F0h,001h,0E0
004510 00000059 00000000 
004518 00000C10 00000000   B   697                    db 000h,000h,00Ch,010h,000h,000
004520 00000059 00F023F0 
004528 00F033F0 00FE1000   B   698                    db 000h,0F0h,033h,0F0h,000h,0FE
004530 00F03059 00F02C10 
004538 00000C10 00000C00   B   699                    db 000h,000h,00Ch,010h,000h,000
004540 00000059 010D23F0 
004548 016833F0 01E05000   B   700                    db 001h,068h,033h,0F0h,001h,0E0
004550 00000C00 00F02C10 
004558 00000C10 00000000   B   701                    db 000h,000h,00Ch,010h,000h,000
004560 00000000 00F023F0 
004568 00F033F0 01E05000   B   702                    db 000h,0F0h,033h,0F0h,001h,0E0
004570 00F03059 010D2C10 
004578 00000C10 00000000   B   703                    db 000h,000h,00Ch,010h,000h,000
004580 00000059 010D23F0 
004588 016833F0 01E05000   B   704                    db 001h,068h,033h,0F0h,001h,0E0
004590 00000059 00F02C10 
004598 00000C10 00000000   B   705                    db 000h,000h,00Ch,010h,000h,000
0045A0 00000059 014023F0 
0045A8 00F033F0 00FE1000   B   706                    db 000h,0F0h,033h,0F0h,000h,0FE
0045B0 00F03059 010D2C10 
0045B8 00000C10 00000C00   B   707                    db 000h,000h,00Ch,010h,000h,000
0045C0 00000059 016823F0 
0045C8 016833F0 01E05000   B   708                    db 001h,068h,033h,0F0h,001h,0E0
0045D0 00000C00 01402C10 
0045D8 00000C10 00000000   B   709                    db 000h,000h,00Ch,010h,000h,000
0045E0 00000000 00D62000 
0045E8 01403000 01AC5000   B   710                    db 001h,040h,030h,000h,001h,0AC
0045F0 00D63058 00000000 
Zilog eZ80 Macro Assembler Version 4.1 (10060805)02-Feb-11     16:18:35     page:  78


PC     Object              I  Line    Source E:\MY_OWN~1\Coding\EZ80PR~1\Code\PROSEA~1\PROTRA~3\src\tune03_pattern.asm
0045F8 00000C10 00000000   B   711                    db 000h,000h,00Ch,010h,000h,000
004600 00000058 00000C10 
004608 00D633F0 01AC5000   B   712                    db 000h,0D6h,033h,0F0h,001h,0AC
004610 00000058 00000000 
004618 00000C10 00000000   B   713                    db 000h,000h,00Ch,010h,000h,000
004620 00000058 00D623F0 
004628 014033F0 00FE1000   B   714                    db 001h,040h,033h,0F0h,000h,0FE
004630 00D63058 00000000 
004638 00000C10 00000C00   B   715                    db 000h,000h,00Ch,010h,000h,000
004640 00000058 00000C10 
004648 00D633F0 01AC5000   B   716                    db 000h,0D6h,033h,0F0h,001h,0AC
004650 00000C00 00000000 
004658 00000C10 00000000   B   717                    db 000h,000h,00Ch,010h,000h,000
004660 00000000 00F023F0 
004668 014033F0 01AC5000   B   718                    db 001h,040h,033h,0F0h,001h,0AC
004670 00D63058 00000000 
004678 00000C10 00000000   B   719                    db 000h,000h,00Ch,010h,000h,000
004680 00000058 00000C10 
004688 00D633F0 01AC5000   B   720                    db 000h,0D6h,033h,0F0h,001h,0AC
004690 00000058 00000000 
004698 00000C10 00000000   B   721                    db 000h,000h,00Ch,010h,000h,000
0046A0 00000058 00D623F0 
0046A8 014033F0 00FE1000   B   722                    db 001h,040h,033h,0F0h,000h,0FE
0046B0 00D63058 00000C10 
0046B8 00000C10 00000C00   B   723                    db 000h,000h,00Ch,010h,000h,000
0046C0 00000058 010D23F0 
0046C8 00D633F0 01AC5000   B   724                    db 000h,0D6h,033h,0F0h,001h,0AC
0046D0 00000C00 00000000 
0046D8 00000C10 00000000   B   725                    db 000h,000h,00Ch,010h,000h,000
0046E0 00000000 00000000 
0046E8 019433F0 021A5000   B   726                    db 001h,094h,033h,0F0h,002h,01A
0046F0 010D3059 00000C10 
0046F8 00000C10 00000000   B   727                    db 000h,000h,00Ch,010h,000h,000
004700 00000059 00000000 
004708 010D33F0 021A5000   B   728                    db 001h,00Dh,033h,0F0h,002h,01A
004710 00000059 00000000 
004718 00000C10 00000000   B   729                    db 000h,000h,00Ch,010h,000h,000
004720 00000059 010D23F0 
004728 019433F0 00FE1000   B   730                    db 001h,094h,033h,0F0h,000h,0FE
004730 010D3059 00000000 
004738 00000C10 00000C00   B   731                    db 000h,000h,00Ch,010h,000h,000
004740 00000059 00000C10 
004748 010D33F0 021A5000   B   732                    db 001h,00Dh,033h,0F0h,002h,01A
004750 00000C00 00000000 
004758 00000C10 00000000   B   733                    db 000h,000h,00Ch,010h,000h,000
004760 00000000 00F023F0 
004768 019433F0 021A5000   B   734                    db 001h,094h,033h,0F0h,002h,01A
004770 010D3059 00000000 
004778 00000C10 00000000   B   735                    db 000h,000h,00Ch,010h,000h,000
004780 00000059 00000C10 
004788 010D33F0 021A5000   B   736                    db 001h,00Dh,033h,0F0h,002h,01A
004790 00000059 00000000 
Zilog eZ80 Macro Assembler Version 4.1 (10060805)02-Feb-11     16:18:35     page:  79


PC     Object              I  Line    Source E:\MY_OWN~1\Coding\EZ80PR~1\Code\PROSEA~1\PROTRA~3\src\tune03_pattern.asm
004798 00000C10 00000000   B   737                    db 000h,000h,00Ch,010h,000h,000
0047A0 00000059 00A023F0 
0047A8 019433F0 00FE1000   B   738                    db 001h,094h,033h,0F0h,000h,0FE
0047B0 010D3059 00000000 
0047B8 00000C10 00000C00   B   739                    db 000h,000h,00Ch,010h,000h,000
0047C0 00000059 00000C10 
0047C8 010D33F0 021A5000   B   740                    db 001h,00Dh,033h,0F0h,002h,01A
0047D0 00000C00 00000000 
0047D8 00000C10 00000000   B   741                    db 000h,000h,00Ch,010h,000h,000
0047E0 00000000 00B423F0 
0047E8 00B433F0 01685000   B   742                    db 000h,0B4h,033h,0F0h,001h,068
0047F0 01683059 00000000 
0047F8 00000C10 00000000   B   743                    db 000h,000h,00Ch,010h,000h,000
004800 00000059 00000C10 
004808 010D33F0 01685000   B   744                    db 001h,00Dh,033h,0F0h,001h,068
004810 00000059 00000000 
004818 00000C10 00000000   B   745                    db 000h,000h,00Ch,010h,000h,000
004820 00000059 00B423F0 
004828 00B433F0 00FE1000   B   746                    db 000h,0B4h,033h,0F0h,000h,0FE
004830 01683059 00000000 
004838 00000C10 00000C00   B   747                    db 000h,000h,00Ch,010h,000h,000
004840 00000059 00000C10 
004848 010D33F0 01685000   B   748                    db 001h,00Dh,033h,0F0h,001h,068
004850 00000C00 00000000 
004858 00000C10 00000000   B   749                    db 000h,000h,00Ch,010h,000h,000
004860 00000000 00D623F0 
004868 00B433F0 01685000   B   750                    db 000h,0B4h,033h,0F0h,001h,068
004870 01683059 00000C10 
004878 00000C10 00000000   B   751                    db 000h,000h,00Ch,010h,000h,000
004880 00000059 00D623F0 
004888 010D33F0 01685000   B   752                    db 001h,00Dh,033h,0F0h,001h,068
004890 00000059 00000C10 
004898 00000C10 00000000   B   753                    db 000h,000h,00Ch,010h,000h,000
0048A0 00000059 00B423F0 
0048A8 00B433F0 00FE1000   B   754                    db 000h,0B4h,033h,0F0h,000h,0FE
0048B0 01683059 00000C10 
0048B8 00000C10 00000C00   B   755                    db 000h,000h,00Ch,010h,000h,000
0048C0 00000059 00F023F0 
0048C8 010D33F0 01685000   B   756                    db 001h,00Dh,033h,0F0h,001h,068
0048D0 00000C00 00000000 
0048D8 00000C10 00000000   B   757                    db 000h,000h,00Ch,010h,000h,000
0048E0 00000000 00000000 
0048E8 00F033F0 01E05000   B   758                    db 000h,0F0h,033h,0F0h,001h,0E0
0048F0 00F03059 00000000 
0048F8 00000C10 00000000   B   759                    db 000h,000h,00Ch,010h,000h,000
004900 00000059 00000C10 
004908 016833F0 01E05000   B   760                    db 001h,068h,033h,0F0h,001h,0E0
004910 00000059 00000000 
004918 00000C10 00000000   B   761                    db 000h,000h,00Ch,010h,000h,000
004920 00000059 00F023F0 
004928 00F033F0 00FE1000   B   762                    db 000h,0F0h,033h,0F0h,000h,0FE
004930 00F03059 00F02C10 
Zilog eZ80 Macro Assembler Version 4.1 (10060805)02-Feb-11     16:18:35     page:  80


PC     Object              I  Line    Source E:\MY_OWN~1\Coding\EZ80PR~1\Code\PROSEA~1\PROTRA~3\src\tune03_pattern.asm
004938 00000C10 00000C00   B   763                    db 000h,000h,00Ch,010h,000h,000
004940 00000059 010D23F0 
004948 016833F0 01E05000   B   764                    db 001h,068h,033h,0F0h,001h,0E0
004950 00000C00 00F02C10 
004958 00000C10 00000000   B   765                    db 000h,000h,00Ch,010h,000h,000
004960 00000000 01AC1000 
004968 00F033F0 00FE1A0F   B   766                    db 000h,0F0h,033h,0F0h,000h,0FE
004970 00F03059 01FC1A0A 
004978 00000C10 00FE1A0F   B   767                    db 000h,000h,00Ch,010h,000h,0FE
004980 00000059 01FC1A0A 
004988 016833F0 00000A0F   B   768                    db 001h,068h,033h,0F0h,000h,000
004990 00000059 01AC1000 
004998 00000C10 00FE1A0F   B   769                    db 000h,000h,00Ch,010h,000h,0FE
0049A0 00000059 01FC1A0A 
0049A8 00F033F0 00FE1A0F   B   770                    db 000h,0F0h,033h,0F0h,000h,0FE
0049B0 00F03059 01FC1A0A 
0049B8 00000C10 00000A0F   B   771                    db 000h,000h,00Ch,010h,000h,000
0049C0 00000059 01AC1000 
0049C8 016833F0 00FE1A0F   B   772                    db 001h,068h,033h,0F0h,000h,0FE
0049D0 00000C00 01FC1A0A 
0049D8 00000C10 00FE1A0F   B   773                    db 000h,000h,00Ch,010h,000h,0FE
0049E0 00000000 01AC5000 
0049E8 01403000 00000101   B   774                    db 001h,040h,030h,000h,000h,000
0049F0 00000E60 00000000 
0049F8 00000C10 00000101   B   775                    db 000h,000h,00Ch,010h,000h,000
004A00 00000000 01AC5000 
004A08 00D633F0 00000101   B   776                    db 000h,0D6h,033h,0F0h,000h,000
004A10 00000000 00000000 
004A18 00000C10 00000101   B   777                    db 000h,000h,00Ch,010h,000h,000
004A20 00000000 00FE1000 
004A28 014033F0 00000101   B   778                    db 001h,040h,033h,0F0h,000h,000
004A30 00000000 00000C00 
004A38 00000C10 00000101   B   779                    db 000h,000h,00Ch,010h,000h,000
004A40 00000000 01AC5000 
004A48 00D633F0 00000101   B   780                    db 000h,0D6h,033h,0F0h,000h,000
004A50 00000000 00000000 
004A58 00000C10 00000101   B   781                    db 000h,000h,00Ch,010h,000h,000
004A60 00000000 01AC5000 
004A68 014033F0 00000101   B   782                    db 001h,040h,033h,0F0h,000h,000
004A70 00000000 00000000 
004A78 00000C10 00000101   B   783                    db 000h,000h,00Ch,010h,000h,000
004A80 00000000 01AC5000 
004A88 00D633F0 00000101   B   784                    db 000h,0D6h,033h,0F0h,000h,000
004A90 00000000 00000000 
004A98 00000C10 00000101   B   785                    db 000h,000h,00Ch,010h,000h,000
004AA0 00000000 00FE1000 
004AA8 014033F0 00000101   B   786                    db 001h,040h,033h,0F0h,000h,000
004AB0 00000000 00000C00 
004AB8 00000C10 00000101   B   787                    db 000h,000h,00Ch,010h,000h,000
004AC0 00000000 01AC5000 
004AC8 00D633F0 00000101   B   788                    db 000h,0D6h,033h,0F0h,000h,000
004AD0 00000000 00000000 
Zilog eZ80 Macro Assembler Version 4.1 (10060805)02-Feb-11     16:18:35     page:  81


PC     Object              I  Line    Source E:\MY_OWN~1\Coding\EZ80PR~1\Code\PROSEA~1\PROTRA~3\src\tune03_pattern.asm
004AD8 00000C10 00000101   B   789                    db 000h,000h,00Ch,010h,000h,000
004AE0 00000E63 021A5000 
004AE8 019433F0 00000202   B   790                    db 001h,094h,033h,0F0h,000h,000
004AF0 00000000 00000000 
004AF8 00000C10 00000202   B   791                    db 000h,000h,00Ch,010h,000h,000
004B00 00000000 021A5000 
004B08 010D33F0 00000202   B   792                    db 001h,00Dh,033h,0F0h,000h,000
004B10 00000000 00000000 
004B18 00000C10 00000202   B   793                    db 000h,000h,00Ch,010h,000h,000
004B20 00000000 00FE1000 
004B28 019433F0 00000202   B   794                    db 001h,094h,033h,0F0h,000h,000
004B30 00000000 00000C00 
004B38 00000C10 00000202   B   795                    db 000h,000h,00Ch,010h,000h,000
004B40 00000000 021A5000 
004B48 010D33F0 00000202   B   796                    db 001h,00Dh,033h,0F0h,000h,000
004B50 00000000 00000000 
004B58 00000C10 00000202   B   797                    db 000h,000h,00Ch,010h,000h,000
004B60 00000000 021A5000 
004B68 019433F0 00000202   B   798                    db 001h,094h,033h,0F0h,000h,000
004B70 00000000 00000000 
004B78 00000C10 00000202   B   799                    db 000h,000h,00Ch,010h,000h,000
004B80 00000000 021A5000 
004B88 010D33F0 00000202   B   800                    db 001h,00Dh,033h,0F0h,000h,000
004B90 00000000 00000000 
004B98 00000C10 00000202   B   801                    db 000h,000h,00Ch,010h,000h,000
004BA0 00000000 00FE1000 
004BA8 019433F0 00000202   B   802                    db 001h,094h,033h,0F0h,000h,000
004BB0 00000000 00000C00 
004BB8 00000C10 00000202   B   803                    db 000h,000h,00Ch,010h,000h,000
004BC0 00000000 021A5000 
004BC8 010D33F0 00000202   B   804                    db 001h,00Dh,033h,0F0h,000h,000
004BD0 00000000 00000000 
004BD8 00000C10 00000202   B   805                    db 000h,000h,00Ch,010h,000h,000
004BE0 00000000 01685000 
004BE8 00B433F0 00000202   B   806                    db 000h,0B4h,033h,0F0h,000h,000
004BF0 00000000 00000000 
004BF8 00000C10 00000202   B   807                    db 000h,000h,00Ch,010h,000h,000
004C00 00000000 01685000 
004C08 010D33F0 00000202   B   808                    db 001h,00Dh,033h,0F0h,000h,000
004C10 00000000 00000000 
004C18 00000C10 00000202   B   809                    db 000h,000h,00Ch,010h,000h,000
004C20 00000000 00FE1000 
004C28 00B433F0 00000202   B   810                    db 000h,0B4h,033h,0F0h,000h,000
004C30 00000000 00000C00 
004C38 00000C10 00000202   B   811                    db 000h,000h,00Ch,010h,000h,000
004C40 00000000 01685000 
004C48 010D33F0 00000202   B   812                    db 001h,00Dh,033h,0F0h,000h,000
004C50 00000000 00000000 
004C58 00000C10 00000202   B   813                    db 000h,000h,00Ch,010h,000h,000
004C60 00000000 01685000 
004C68 00B433F0 00000202   B   814                    db 000h,0B4h,033h,0F0h,000h,000
004C70 00000000 00000000 
Zilog eZ80 Macro Assembler Version 4.1 (10060805)02-Feb-11     16:18:35     page:  82


PC     Object              I  Line    Source E:\MY_OWN~1\Coding\EZ80PR~1\Code\PROSEA~1\PROTRA~3\src\tune03_pattern.asm
004C78 00000C10 00000202   B   815                    db 000h,000h,00Ch,010h,000h,000
004C80 00000000 01685000 
004C88 010D33F0 00000202   B   816                    db 001h,00Dh,033h,0F0h,000h,000
004C90 00000000 00000000 
004C98 00000C10 00000202   B   817                    db 000h,000h,00Ch,010h,000h,000
004CA0 00000000 00FE1000 
004CA8 00B433F0 00000202   B   818                    db 000h,0B4h,033h,0F0h,000h,000
004CB0 00000000 00000C00 
004CB8 00000C10 00000202   B   819                    db 000h,000h,00Ch,010h,000h,000
004CC0 00000000 01685000 
004CC8 010D33F0 00000202   B   820                    db 001h,00Dh,033h,0F0h,000h,000
004CD0 00000000 00000000 
004CD8 00000C10 00000202   B   821                    db 000h,000h,00Ch,010h,000h,000
004CE0 00000000 01E05000 
004CE8 00F033F0 00000202   B   822                    db 000h,0F0h,033h,0F0h,000h,000
004CF0 00000000 00000000 
004CF8 00000C10 00000202   B   823                    db 000h,000h,00Ch,010h,000h,000
004D00 00000000 01E05000 
004D08 016833F0 00000202   B   824                    db 001h,068h,033h,0F0h,000h,000
004D10 00000000 00000000 
004D18 00000C10 00000202   B   825                    db 000h,000h,00Ch,010h,000h,000
004D20 00000000 00FE1000 
004D28 00F033F0 00000202   B   826                    db 000h,0F0h,033h,0F0h,000h,000
004D30 00000000 00000C00 
004D38 00000C10 00000202   B   827                    db 000h,000h,00Ch,010h,000h,000
004D40 00000000 01E05000 
004D48 016833F0 00000202   B   828                    db 001h,068h,033h,0F0h,000h,000
004D50 00000000 00000000 
004D58 00000C10 00000202   B   829                    db 000h,000h,00Ch,010h,000h,000
004D60 00000000 00FE1A0F 
004D68 00F033F0 01AC1000   B   830                    db 000h,0F0h,033h,0F0h,001h,0AC
004D70 00000000 00FE1A0F 
004D78 00000C10 01FC1A0A   B   831                    db 000h,000h,00Ch,010h,001h,0FC
004D80 00000000 00000A0F 
004D88 016833F0 01FC1A0A   B   832                    db 001h,068h,033h,0F0h,001h,0FC
004D90 00000000 00FE1A0F 
004D98 00000C10 01AC1000   B   833                    db 000h,000h,00Ch,010h,001h,0AC
004DA0 00000000 00FE1A0F 
004DA8 00F033F0 01FC1A0A   B   834                    db 000h,0F0h,033h,0F0h,001h,0FC
004DB0 00000000 00000A0F 
004DB8 00000C10 01FC1A0A   B   835                    db 000h,000h,00Ch,010h,001h,0FC
004DC0 00000000 00FE1A0F 
004DC8 016833F0 01AC1000   B   836                    db 001h,068h,033h,0F0h,001h,0AC
004DD0 00000000 00FE1A0F 
004DD8 00000C10 01FC1B02   B   837                    db 000h,000h,00Ch,010h,001h,0FC
004DE0 00000000 
                           A    98    			
                           A    99    ;----------------------------------------------
                           A   100    
                           A   101    		
Zilog eZ80 Macro Assembler Version 4.1 (10060805)02-Feb-11     16:18:35     page:  83


PC     Object              I  Line    Source 


Errors: 0
Warnings: 0
Lines Assembled: 3140
