
Hexadecimal

Area                               Addr   Size   Decimal Bytes (Attributes)
--------------------------------   ----   ----   ------- ----- ------------
.  .ABS.                           0000   0000 =      0. bytes (ABS,CON)

      Value  Global
   --------  --------------------------------
     0000    l__BSS
     0000    l__CABS
     0000    l__HEAP
     0000    l__HEAP_END
     0000    l__HOME
     0000    l__OVERLAY
     0000    s__HEADER
     0001    l__GSFINAL
     0020    l__GSINIT
     055A    l__DATA
     0759    l__FLOS_PROXY_CODE
     27E3    l__CODE
     5044    l__HEADER
     5080    s__FLOS_PROXY_CODE
     5A80    s__CODE
     8263    s__GSINIT
     8263    s__HOME
     8280    s__DATA
     8283    s__GSFINAL
     87DA    s__BSS
     87DA    s__CABS
     87DA    s__HEAP
     87DA    s__HEAP_END
     87DA    s__OVERLAY

Hexadecimal

Area                               Addr   Size   Decimal Bytes (Attributes)
--------------------------------   ----   ----   ------- ----- ------------
_CODE                              5A80   27E3 =  10211. bytes (REL,CON)

      Value  Global
   --------  --------------------------------
     5A80    __clock
     5A81    _exit
     5A93    flos_sp
     5A95    _flos_cmdline
     5A97    _flos_spawn_cmd
     5ABF    _MarkFrameTime
     5ABF    _MarkFrameTime_start
     5ADA    _FLOS_GetLastError
     5ADA    _FLOS_GetLastError_start
     5ADA    _MarkFrameTime_end
     5AE2    _FLOS_CheckDiskAvailable
     5AE2    _FLOS_CheckDiskAvailable_start
     5AE2    _FLOS_GetLastError_end
     5B08    _FLOS_CheckDiskAvailable_end
     5B08    _FLOS_MakeDir
     5B08    _FLOS_MakeDir_start
     5B52    _FLOS_ChangeDir
     5B52    _FLOS_ChangeDir_start
     5B52    _FLOS_MakeDir_end
     5B9C    _FLOS_ChangeDir_end
     5B9C    _FLOS_ParentDir
     5B9C    _FLOS_ParentDir_start
     5BCC    _FLOS_ParentDir_end
     5BCC    _FLOS_RootDir
     5BCC    _FLOS_RootDir_start
     5BE2    _FLOS_DeleteDir
     5BE2    _FLOS_DeleteDir_start
     5BE2    _FLOS_RootDir_end
     5C2C    _FLOS_DeleteDir_end
     5C2C    _FLOS_StoreDirPosition
     5C2C    _FLOS_StoreDirPosition_start
     5C42    _FLOS_RestoreDirPosition
     5C42    _FLOS_RestoreDirPosition_start
     5C42    _FLOS_StoreDirPosition_end
     5C58    _FLOS_GetTotalSectors
     5C58    _FLOS_GetTotalSectors_start
     5C58    _FLOS_RestoreDirPosition_end
     5C7A    _FLOS_FindFile
     5C7A    _FLOS_FindFile_start
     5C7A    _FLOS_GetTotalSectors_end
     5D0C    _FLOS_FindFile_end
     5D0C    _FLOS_SetLoadLength
     5D0C    _FLOS_SetLoadLength_start
     5D48    _FLOS_SetFilePointer
     5D48    _FLOS_SetFilePointer_start
     5D48    _FLOS_SetLoadLength_end
     5D84    _FLOS_ForceLoad
     5D84    _FLOS_ForceLoad_start
     5D84    _FLOS_SetFilePointer_end
     5DD8    _FLOS_CreateFile
     5DD8    _FLOS_CreateFile_start
     5DD8    _FLOS_ForceLoad_end
     5E36    _FLOS_CreateFile_end
     5E36    _FLOS_EraseFile
     5E36    _FLOS_EraseFile_start
     5E80    _FLOS_EraseFile_end
     5E80    _FLOS_WriteBytesToFile
     5E80    _FLOS_WriteBytesToFile_start
     5F00    _FLOS_PrintString
     5F00    _FLOS_PrintString_start
     5F00    _FLOS_WriteBytesToFile_end
     5F30    _FLOS_ClearScreen
     5F30    _FLOS_ClearScreen_start
     5F30    _FLOS_PrintString_end
     5F46    _FLOS_ClearScreen_end
     5F46    _FLOS_FlosDisplay
     5F46    _FLOS_FlosDisplay_start
     5F5C    _FLOS_FlosDisplay_end
     5F5C    _FLOS_WaitVRT
     5F5C    _FLOS_WaitVRT_start
     5F72    _FLOS_SetPen
     5F72    _FLOS_SetPen_start
     5F72    _FLOS_WaitVRT_end
     5F9C    _FLOS_SetCursorPos
     5F9C    _FLOS_SetCursorPos_start
     5F9C    _FLOS_SetPen_end
     5FD5    _FLOS_SetCursorPos_end
     5FD5    _FLOS_WaitKeyPress
     5FD5    _FLOS_WaitKeyPress_start
     6014    _FLOS_GetKeyPress
     6014    _FLOS_GetKeyPress_start
     6014    _FLOS_WaitKeyPress_end
     6064    _FLOS_DirListFirstEntry
     6064    _FLOS_DirListFirstEntry_start
     6064    _FLOS_GetKeyPress_end
     607A    _FLOS_DirListFirstEntry_end
     607A    _FLOS_DirListGetEntry
     607A    _FLOS_DirListGetEntry_start
     60F6    _FLOS_DirListGetEntry_end
     60F6    _FLOS_DirListNextEntry
     60F6    _FLOS_DirListNextEntry_start
     6110    _FLOS_DirListNextEntry_end
     6110    _FLOS_GetDirName
     6110    _FLOS_GetDirName_start
     613C    _FLOS_GetDirName_end
     613C    _FLOS_GetVersion
     613C    _FLOS_GetVersion_start
     6186    _FLOS_GetVersion_end
     6186    _FLOS_PrintStringLFCR
     6186    _FLOS_PrintStringLFCR_start
     61A4    _FLOS_PrintStringLFCR_end
     61A6    _FLOS_GetCmdLine
     61A6    _FLOS_GetCmdLine_start
     61AA    _FLOS_GetCmdLine_end
     61AA    _FLOS_SetSpawnCmdLine
     61AA    _FLOS_SetSpawnCmdLine_start
     61E5    _DiagMessage
     61E5    _DiagMessage_start
     61E5    _FLOS_SetSpawnCmdLine_end
     6239    _DiagMessage_end
     6239    _own_sp
     6248    _load_file_to_buffer
     6248    _load_file_to_buffer_start
     62D9    _load_file_to_buffer_end
     62FE    _RequestToExitAndExecuteCommandString
     62FE    _RequestToExitAndExecuteCommandString_start
     6329    _RequestToExitAndExecuteCommandString_end
     6329    _do_dir
     6329    _do_dir_start
     6493    _do_dir_end
     64A3    _split_string_to_many_strings
     64A3    _split_string_to_many_strings_start
     6511    _PrintMessage
     6511    _PrintMessage_start
     6511    _split_string_to_many_strings_end
     652F    _PrintMessage_end
     6531    _ListView_Update
     6531    _ListView_Update_start
     677B    _ListView_Update_end
     6782    _ListView_GetNumItems
     6782    _ListView_GetNumItems_start
     679A    _ListView_GetNumItems_end
     679A    _ListView_GetSelectedIndex
     679A    _ListView_GetSelectedIndex_start
     67B4    _ListView_GetSelectedIndex_end
     67B4    _ListView_SetSelectedIndex
     67B4    _ListView_SetSelectedIndex_start
     67D2    _ListView_Init
     67D2    _ListView_Init_start
     67D2    _ListView_SetSelectedIndex_end
     67FA    _ListView_GetItem
     67FA    _ListView_GetItem_start
     67FA    _ListView_Init_end
     6818    _ListView_GetItem_end
     6818    _ListView_GetSelectedItem
     6818    _ListView_GetSelectedItem_start
     6841    _ListView_GetSelectedItem_end
     6841    _ListView_check_visible_part
     6841    _ListView_check_visible_part_start
     68F6    _ListView_check_visible_part_end
     68F6    _ListView_get_item_by_index
     68F6    _ListView_get_item_by_index_start
     6945    _ListView_get_item_by_index_end
     6945    _ListView_update_own_textfield
     6945    _ListView_update_own_textfield_start
     69AD    _ListView_update_own_textfield_end
     69BC    _replace_new_lines_with_zero_bytes
     69BC    _replace_new_lines_with_zero_bytes_start
     6A23    _iterate_trough_extensions
     6A23    _iterate_trough_extensions_start
     6A23    _replace_new_lines_with_zero_bytes_end
     6B10    _iterate_trough_extensions_end
     6B18    _add_user_action_based_on_ext
     6B18    _add_user_action_based_on_ext_start
     6BA1    _add_user_action_based_on_ext_end
     6BA1    _get_user_action_based_on_ext
     6BA1    _get_user_action_based_on_ext_start
     6C05    _get_user_action_based_on_ext_end
     6C05    _init_config_file_parser
     6C05    _init_config_file_parser_start
     6C1D    _init_config_file_parser_end
     6C1D    _load_config_file
     6C1D    _load_config_file_start
     6C82    _load_config_file_end
     6CBA    _enter_pressed
     6CBA    _enter_pressed_start
     6D3C    _enter_pressed_end
     6D42    _extract_filename_from_buffer
     6D42    _extract_filename_from_buffer_start
     6DA4    _extract_filename_from_buffer_end
     6DA6    _do_action_based_on_file_extension
     6DA6    _do_action_based_on_file_extension_start
     6E80    _do_action_based_on_file_extension_end
     6E8A    _request_to_exit_and_execute_command_with_filename
     6E8A    _request_to_exit_and_execute_command_with_filename_start
     6EEB    _f4_pressed
     6EEB    _f4_pressed_start
     6EEB    _request_to_exit_and_execute_command_with_filename_end
     6F20    _f4_pressed_end
     6F2A    _IsSelectedItem_DIR
     6F2A    _IsSelectedItem_DIR_start
     6F57    _IsSelectedItem_DIR_end
     6F5D    _GetFilenameOfSelectedItem
     6F5D    _GetFilenameOfSelectedItem_start
     6F8B    _GetFilenameOfSelectedItem_end
     6F8B    _print_box
     6F8B    _print_box_start
     7038    _print_box_end
     703E    _delete_dir_entry
     703E    _delete_dir_entry_start
     7140    _delete_dir_entry_end
     7151    _main
     7151    _main_start
     71D4    _main_end
     7212    _fill_ListView_by_entries_from_current_dir
     7212    _fill_ListView_by_entries_from_current_dir_start
     72AA    _fill_ListView_by_entries_from_current_dir_end
     72AA    _main_loop
     72AA    _main_loop_start
     7450    _clear_area
     7450    _clear_area_start
     7450    _main_loop_end
     74D6    _clear_area_end
     74D8    _check_OS_version
     74D8    _check_OS_version_start
     750A    _check_OS_version_end
     750A    _clear_keyboard_buffer
     750A    _clear_keyboard_buffer_start
     752D    _clear_keyboard_buffer_end
     752D    _strstr
     752D    _strstr_start
     75EE    __uitoa
     75EE    __uitoa_start
     75EE    _strstr_end
     76BB    __itoa
     76BB    __itoa_start
     76BB    __uitoa_end
     770E    __itoa_end
     770E    __ultoa
     770E    __ultoa_start
     77E4    __ltoa
     77E4    __ltoa_start
     77E4    __ultoa_end
     784F    __ltoa_end
     784F    _memset
     784F    _memset_start
     7890    __mullong_rrf_s
     7890    __mullong_rrx_s
     7890    _memset_end
     7893    __modslong_rrf_s
     7893    __modslong_rrx_s
     7896    __modulong_rrf_s
     7896    __modulong_rrx_s
     7899    __divslong_rrf_s
     7899    __divslong_rrx_s
     789C    __divulong_rrf_s
     789C    __divulong_rrx_s
     789F    __mulint_rrf_s
     78A5    __divsint_rrf_s
     78AB    __divuint_rrf_s
     78B1    __mulschar_rrf_s
     78B7    __divschar_rrf_s
     78BD    __modschar_rrf_s
     78C3    __muluchar_rrf_s
     78C9    __divuchar_rrf_s
     78CF    __moduchar_rrf_s
     78D5    __mulsuchar_rrf_s
     78DB    __divsuchar_rrf_s
     78E1    __modsuchar_rrf_s
     78E7    __muluschar_rrf_s
     78ED    __divuschar_rrf_s
     78F3    __moduschar_rrf_s
     78F9    __modsint_rrf_s
     78FF    __moduint_rrf_s
     7905    __rrulong_rrf_s
     790B    __rrslong_rrf_s
     7911    __rlulong_rrf_s
     7917    __rlslong_rrf_s
     791D    _strcat
     791D    _strcat_start
     7948    _strcat_end
     7948    _strlen
     7963    _strcmp
     7963    _strcmp_start
     79E5    __mullong
     79E5    __mullong_start
     79E5    _strcmp_end
     7CC1    __divschar_rrx_s
     7CC1    __mullong_end
     7CC8    __divschar_rrx_hds
     7CCF    __modschar_rrx_s
     7CD6    __modschar_rrx_hds
     7CDD    __divsint_rrx_s
     7CE9    __divsint_rrx_hds
     7CF1    __modsint_rrx_s
     7CFD    __modsint_rrx_hds
     7D05    __moduchar_rrx_s
     7D0C    __moduchar_rrx_hds
     7D13    __moduint_rrx_s
     7D1F    __moduint_rrx_hds
     7D27    __moduschar_rrx_s
     7D3A    __rrulong_rrx_s
     7D57    __rrslong_rrx_s
     7D74    __rlslong_rrx_s
     7D74    __rlulong_rrx_s
     7D91    __divuchar_rrx_s
     7D98    __divuchar_rrx_hds
     7D9F    __divuint_rrx_s
     7DAB    __divuint_rrx_hds
     7DB3    __divsuchar_rrx_s
     7DC2    __modsuchar_rrx_s
     7DD1    __divuschar_rrx_s
     7DE4    .mod8
     7DE4    __div8
     7DEC    .mod16
     7DEC    __div16
     7E22    .modu8
     7E22    __divu8
     7E25    .modu16
     7E25    __divu16
     7E57    __muluchar_rrx_s
     7E6A    __mulsuchar_rrx_s
     7E75    __muluschar_rrx_s
     7E80    __mulschar_rrx_s
     7E87    __mulschar_rrx_hds
     7E93    __modslong
     7E93    __modslong_start
     7F69    __modslong_end
     7F69    __modulong
     7F69    __modulong_start
     807A    __divslong
     807A    __divslong_start
     807A    __modulong_end
     815D    __divslong_end
     815D    __mulint_rrx_s
     8169    __mulint_rrx_hds
     8169    __muluchar_rrx_hds
     816B    __mul16
     8181    __divulong
     8181    __divulong_start
     8263    __divulong_end



Hexadecimal

Area                               Addr   Size   Decimal Bytes (Attributes)
--------------------------------   ----   ----   ------- ----- ------------
_GSINIT                            8263   0020 =     32. bytes (REL,CON)

      Value  Global
   --------  --------------------------------
     8263    gsinit


Hexadecimal

Area                               Addr   Size   Decimal Bytes (Attributes)
--------------------------------   ----   ----   ------- ----- ------------
_DATA                              8280   055A =   1370. bytes (REL,CON)

      Value  Global
   --------  --------------------------------
     8280    _g_a1_byte_result
     8281    _g_flos_lasterror
     8282    _g_flos_hw_lasterror
     8283    _pFunc
     8285    _request_exit
     8286    _request_spawn_command
     8287    _myFile
     828E    _buffer
     82AF    _buf
     82B7    _tmp1
     82B9    _numStrings
     82BB    _config_file_buffer
     86BB    _config
     87BF    _lview






Hexadecimal

Area                               Addr   Size   Decimal Bytes (Attributes)
--------------------------------   ----   ----   ------- ----- ------------
_FLOS_PROXY_CODE                   5080   0759 =   1881. bytes (REL,CON)

      Value  Global
   --------  --------------------------------
     5080    _flos_proxy_code
MODULES
	FILE C:\_v6z80p_13_04_2009/Contributions/Valen/c_programs/c_support/crt/obj/crt0_v6z80p.o
		NAME crt0
	FILE C:\_v6z80p_13_04_2009/Contributions/Valen/c_programs/c_support/os_interface_for_c/obj/i_flos.o
		NAME i_flos
	FILE C:\_v6z80p_13_04_2009/Contributions/Valen/c_programs/c_support/os_proxy/obj/flos_proxy_code.o
		NAME flos_proxy_code
	FILE C:\_v6z80p_13_04_2009/Contributions/Valen/c_programs/src/fs_walk/obj/myheap.o
	FILE obj/fs_walk.o
		NAME fs_walk
LIBRARIES
	LIBRARY C:\Program Files\SDCC\bin\..\lib\z80/z80.lib
		MODULE _strstr.o
	LIBRARY C:\Program Files\SDCC\bin\..\lib\z80/z80.lib
		MODULE _itoa.o
	LIBRARY C:\Program Files\SDCC\bin\..\lib\z80/z80.lib
		MODULE _ltoa.o
	LIBRARY C:\Program Files\SDCC\bin\..\lib\z80/z80.lib
		MODULE _memset.o
	LIBRARY C:\Program Files\SDCC\bin\..\lib\z80/z80.lib
		MODULE stubs.o
	LIBRARY C:\Program Files\SDCC\bin\..\lib\z80/z80.lib
		MODULE _strcat.o
	LIBRARY C:\Program Files\SDCC\bin\..\lib\z80/z80.lib
		MODULE strlen.o
	LIBRARY C:\Program Files\SDCC\bin\..\lib\z80/z80.lib
		MODULE _strcmp.o
	LIBRARY C:\Program Files\SDCC\bin\..\lib\z80/z80.lib
		MODULE _mullong.o
	LIBRARY C:\Program Files\SDCC\bin\..\lib\z80/z80.lib
		MODULE divsigned.o
	LIBRARY C:\Program Files\SDCC\bin\..\lib\z80/z80.lib
		MODULE mod.o
	LIBRARY C:\Program Files\SDCC\bin\..\lib\z80/z80.lib
		MODULE shift.o
	LIBRARY C:\Program Files\SDCC\bin\..\lib\z80/z80.lib
		MODULE div.o
	LIBRARY C:\Program Files\SDCC\bin\..\lib\z80/z80.lib
		MODULE mulchar.o
	LIBRARY C:\Program Files\SDCC\bin\..\lib\z80/z80.lib
		MODULE _modslong.o
	LIBRARY C:\Program Files\SDCC\bin\..\lib\z80/z80.lib
		MODULE _modulong.o
	LIBRARY C:\Program Files\SDCC\bin\..\lib\z80/z80.lib
		MODULE _divslong.o
	LIBRARY C:\Program Files\SDCC\bin\..\lib\z80/z80.lib
		MODULE mul.o
	LIBRARY C:\Program Files\SDCC\bin\..\lib\z80/z80.lib
		MODULE _divulong.o
USERBASEDEF
	_CODE = 0x5a80
	_DATA = 0x8280
	_FLOS_PROXY_CODE=0x5080
